(lp0
(S'Would my conceit that first enforcd my woe (First Book of Songes and Ayres XVI)'
p1
S'Would my conceit that first enforst my woe'
p2
tp3
a(S'Come again, sweet love doth now invite (Revised)'
p4
S'Come Again'
p5
tp6
a(S'Dear, if you change, Irll never choose again (First Book of Songes and Ayres VII'
p7
S'Deare, if you change.'
p8
tp9
a(S'O God, Who by the Leading of a Star '
p10
S'o_god_who_by_the_leading'
p11
tp12
a(S'Festliches Konzert ("Festive Concerto"), 3rd mvt: Lobe den Herren (vocal score o'
p13
S'Festliches Konzert ("Festive Concerto"), 3rd mvt: Lobe den Herren-b'
p14
tp15
a(S'missa_duplex_per_totum_annum_5'
p16
S'Missa duplex per totum annum '
p17
tp18
a(S'missa_duplex_per_totum_annum_4'
p19
g17
tp20
a(S'missa_duplex_per_totum_annum_1'
p21
g17
tp22
a(S'missa_duplex_per_totum_annum_3'
p23
g17
tp24
a(S'missa_duplex_per_totum_annum_2'
p25
g17
tp26
a(S'Es lag in Nacht und Graus die Erde (Reformationslied)'
p27
S'Es lag in Nacht und Graus'
p28
tp29
a(S'An die Abendsonne ("Goldne Abendsonne, wie bist du so schon")'
p30
S'An die Abendsonne '
p31
tp32
a(S"Fantasia super 'Jesu, meine Freude', BWV 713 (Bach, Johann Sebastian)"
p33
S'Wie scho\xcc\x88n leuchtet der Morgenstern, BWV 1 (Bach, Johann Sebastian)'
p34
tp35
a(g34
S'Jauchzet Gott in allen Landen, BWV 51 (Bach, Johann Sebastian)'
p36
tp37
a(S"Fughetta on the chorale 'Durch Adams Fall ist ganz verderbt', BWV 705 (Bach, Johann Sebastian)"
p38
S'Wo soll ich fliehen hin, BWV 5 (Bach, Johann Sebastian)'
p39
tp40
a(S'Oh, the sweet delights of love (from Dioclesian) - for SAT'
p41
S'Oh, sweet delights of love (from Dioclesian) - for SATB'
p42
tp43
a(S'Dance Suite for Recorders, 3rd mvt: Dance of the Elves'
p44
S'English Dance'
p45
tp46
a(S'Trumpet Tune, arr. 2 trumpets, horn, trombone and tuba'
p47
S'Trumpet Tune'
p48
tp49
a(S'Dance for the Faeries (from "The Faerie Queen")'
p50
S'The indian queen'
p51
tp52
a(S'Prelude III'
p53
S'Prelude XIII'
p54
tp55
a(S'sonate_concertate_in_stil_moderno_11'
p56
S'sonate_concertate_in_stil_moderno_i_11'
p57
tp58
a(S'sonate_concertate_in_stil_moderno_12'
p59
S'sonate_concertate_in_stil_moderno_i_12'
p60
tp61
a(S'Sonata for Oboe, Trumpet and Continuo in C major '
p62
S'Sonata in C major '
p63
tp64
a(S'Fugue in A minor '
p65
S'Fugue'
p66
tp67
a(S'Pavans, Galliards, Almains and other Short Aeirs '
p68
S'Galliard'
p69
tp70
a(S'pavans_galliards_almains_8'
p71
g69
tp72
a(S'pavans_galliards_almains_9'
p73
g69
tp74
a(S'pavans_galliards_almains_4'
p75
g69
tp76
a(S'pavans_galliards_almains_5'
p77
g69
tp78
a(S'pavans_galliards_almains_6'
p79
g69
tp80
a(S'pavans_galliards_almains_7'
p81
g69
tp82
a(S'pavans_galliards_almains_1'
p83
S'Pavan 1'
p84
tp85
a(g83
g69
tp86
a(S'pavans_galliards_almains_2'
p87
g69
tp88
a(S'pavans_galliards_almains_3'
p89
g69
tp90
a(S'pavans_galliards_almains_18'
p91
g69
tp92
a(S'pavans_galliards_almains_19'
p93
g69
tp94
a(S'pavans_galliards_almains_16'
p95
g69
tp96
a(S'pavans_galliards_almains_17'
p97
g69
tp98
a(S'pavans_galliards_almains_14'
p99
g69
tp100
a(S'pavans_galliards_almains_15'
p101
g69
tp102
a(S'pavans_galliards_almains_12'
p103
g69
tp104
a(S'pavans_galliards_almains_13'
p105
g69
tp106
a(S'pavans_galliards_almains_10'
p107
g69
tp108
a(S'pavans_galliards_almains_11'
p109
g69
tp110
a(S'pavans_galliards_almains_63'
p111
g69
tp112
a(S'pavans_galliards_almains_62'
p113
g69
tp114
a(S'pavans_galliards_almains_61'
p115
g69
tp116
a(S'pavans_galliards_almains_60'
p117
g69
tp118
a(S'pavans_galliards_almains_65'
p119
g69
tp120
a(S'pavans_galliards_almains_64'
p121
g69
tp122
a(S'Eight Fugues for Organ without Pedals: 2nd Fugue in C Minor'
p123
S'Organ Fugue in C minor '
p124
tp125
a(S'Eight Fugues for Organ without Pedals: 1st Fugue in C'
p126
g124
tp127
a(S'Travelling There ....'
p128
S'Travelling There .....'
p129
tp130
a(S'Lobet den Herrn und dankt ihm seine Gaben (grace)'
p131
S'Lobet den Herrn und dankt ihm seine Gaben'
p132
tp133
a(S'Lobet den Herren alle, die ihn ehren 1 (ecumenical chorale)'
p134
S'Lobet den Herrn'
p135
tp136
a(S'Lobet den Herren alle, die ihn ehren 2 (ecumenical chorale)'
p137
g135
tp138
a(S'Horch was kommt von draussen rein (Listen to What Is Coming in from Outside)'
p139
S'Horch, was kommt von drausen rein'
p140
tp141
a(S'Der Christbaum ist der schonste Baum (German Christmas song)'
p142
S'Christmas Songs'
p143
tp144
a(S'Gottlichs Kindlein, dich zu grussen (German Christmas song)'
p145
g143
tp146
a(S'O lieber Hauswirt mein (German Christmas song)'
p147
g143
tp148
a(S'O Tannenbaum, du tragst ein grunen Zweig (O Christmas Tree, You Bear a Green Twi'
p149
S'O Maria'
p150
tp151
a(g149
S'O Tannenbaum (Oh, Christmas Tree)'
p152
tp153
a(S'Still, still, still, weils Kindlein schlafen will (Hush, the Little Child Wants'
p154
S'Still o Himmel'
p155
tp156
a(S"Sankt Martin ritt durch Schnee und Wind (German folk song for St. Martin's Day)"
p157
S"St. Martin's Day Songs (German)"
p158
tp159
a(S'Suite danzas criollas Danza 3'
p160
S'Suite danzas criollas'
p161
tp162
a(S'Wiegenlied der Hirten ("Lasst uns das Kindelein wiegen")'
p163
S'Wiegenlied der Hirten'
p164
tp165
a(S'Office des ve\xcc\x82pres - Entre\xcc\x81e '
p166
S'Entre\xcc\x81e '
p167
tp168
a(S'Die Himmel erzahlen (Chorus and Soli, vocal score only)'
p169
S'Die Himmel Erzahlen (Chorus, vocal score)'
p170
tp171
a(S'String Quartet in D Major, 3rd mvt Menuet alla Zingarese - Trio '
p172
S'Trio in D Major'
p173
tp174
a(S'Piano Sonata in A major, 2nd mvt Menuetto al Rovescio - Trio'
p175
S'Piano Sonata in A major, 2nd mvt Menuetto'
p176
tp177
a(S'scherzo_for_piano'
p178
S'Scherzo '
p179
tp180
a(S'La Bataille de Jannequin (The Battle of Jannequin )'
p181
S'la_bataille'
p182
tp183
a(S'Messe breve No. 7 in C (aux chapelles), 5a. O salutaris hostia (choral score)'
p184
S'O Salutaris Hostia'
p185
tp186
a(S'Ave Maria: Meditation on the First Prelude of J. S. Bach'
p187
S'Ave Maria'
p188
tp189
a(S'Guitar-Skole no. 8 : Andantino, Andante, op. 241, no. 5 '
p190
S'Andante'
p191
tp192
a(g190
S'Andantino'
p193
tp194
a(S'Allegretto 2 in C Major'
p195
S'Allegretto'
p196
tp197
a(S'1st Movement from Sonata No 1 in F (for S A T)'
p198
S'1st Movement from Sonata No 1 in F (for S A T B)'
p199
tp200
a(S'1st Movement from Trio Sonate in G Moll - for SATB'
p201
S'1st Movement from Trio Sonate in G Moll - for SATTB'
p202
tp203
a(S'Frisch auf und lasst uns singen (Eternity Sunday, arr.)'
p204
S'Frisch auf und lasst uns singenen'
p205
tp206
a(g204
S'Frisch auf und lasst uns singen (Eternity Sunday)'
p207
tp208
a(S'melodies_2_2'
p209
S'melodies_2_3'
p210
tp211
a(g209
S'melodies_2_6'
p212
tp213
a(S'24_choralvorspiele_24_123'
p214
S'24_choralvorspiele_3_123'
p215
tp216
a(g214
S'24_choralvorspiele_22_123'
p217
tp218
a(g214
S'24_choralvorspiele_14_123'
p219
tp220
a(g214
S'24_choralvorspiele_17_123'
p221
tp222
a(g214
S'24_choralvorspiele_13_123'
p223
tp224
a(g214
S'24_choralvorspiele_2_123'
p225
tp226
a(g214
S'24_choralvorspiele_6_123'
p227
tp228
a(g214
S'24_choralvorspiele_8_123'
p229
tp230
a(g214
S'24_choralvorspiele_7_123'
p231
tp232
a(g214
S'24_choralvorspiele_15_123'
p233
tp234
a(g214
S'24_choralvorspiele_16_123'
p235
tp236
a(S'concerto_piano_3_3'
p237
S'concerto_piano_3_1'
p238
tp239
a(S'American in Paris'
p240
S'american_in_paris_4'
p241
tp242
a(S'rhapsody_in_blue_aeolian_70947-68787D'
p243
S'Rhapsody In Blue'
p244
tp245
a(S'bess_you_is_my_woman'
p246
S'Bess You Is My Woman'
p247
tp248
a(S'Ogive 3 (Original)'
p249
S'Ogive 3'
p250
tp251
a(S"La Diva de L'Empire - Intermezzo AmA\xcc\x83\xc2\xa9ricain"
p252
S"La Diva de l'Empire"
p253
tp254
a(S'Naher, mein Gott, zu dir (Choral)'
p255
S'Naher, mein Gott, zu dir'
p256
tp257
a(S'Nearer, my God, to Thee (Christian Hymn)'
p258
S'Nearer My God to Thee '
p259
tp260
a(S'Herbei, o ihr GlA\xcc\x83\xc2\xa4ubigen (O Come, All Ye Faithful--German text)'
p261
S"Herbei, o ihr GlA\xcc\x83\xc2\xa4ub'gen (Weihnachtslied)"
p262
tp263
a(S'Nun freut euch, ihr Christen (based on "Adeste fideles")'
p264
S'Adeste Fideles'
p265
tp266
a(g264
S'Adeste Fideles '
p267
tp268
a(S'Adeste Fideles (Christmas Carol from Portugal)'
p269
g265
tp270
a(g269
g267
tp271
a(S'Jerusalem, du hochgebaute Stadt '
p272
S'Jerusalem, du hochgebaute Stadt'
p273
tp274
a(S'Seelenbrautigam (Jesu geh voran) for trumpet and organ'
p275
S'Seelenbra\xcc\x88utigam '
p276
tp277
a(S'Andante No. 17'
p278
S'Andante'
p279
tp280
a(S'Missa in honorem Sanctae Caecilia '
p281
S'Cacilia'
p282
tp283
a(S'Missa in Honorem Sancti Dionisii'
p284
S'Missa in honorem Sancti Dionisii '
p285
tp286
a(S'noels_1_1'
p287
S'noels_1_3'
p288
tp289
a(g287
S'noels_1_2'
p290
tp291
a(S'noels_2_2'
p292
S'noels_2_3'
p293
tp294
a(S'pieces_2_3'
p295
S'pieces_3_2'
p296
tp297
a(S'pieces_2_2'
p298
S'pieces_2_8'
p299
tp300
a(g298
g296
tp301
a(S'Cest une dure despartie - Basse danse'
p302
S'Basse danse'
p303
tp304
a(S'La mourisque - Basse danse'
p305
S'La morisque'
p306
tp307
a(S'Wie scho\xcc\x88n leuchtet der Morgenstern, BWV 1 (Bach, Johann Sebastian)'
p308
S'Jauchzet Gott in allen Landen, BWV 51 (Bach, Johann Sebastian)'
p309
tp310
a(S'Dagli Occhi il Dolce Giro'
p311
S'dagli_occhi_il_dolce_giro'
p312
tp313
a(S'Hodie Christus natus est (Today Christ is Born, Latin lyrics)'
p314
S'hodie_christus_natus_est'
p315
tp316
a(g314
S'Hodie Christus natus est '
p317
tp318
a(S'Ad una Fresca Riva'
p319
S'ad_una_fresca_riva'
p320
tp321
a(g315
g317
tp322
a(S'Adelita (Mazurka)'
p323
S'Adelita '
p324
tp325
a(S'en_natus_est_emmanuel'
p326
S'en_natus_est_emanuel'
p327
tp328
a(S"Bilbo's Geburtstag (Orchesterversion) (Bilbo's Birthday - Orchestral version)"
p329
S"Bilbo's Geburtstag (Bilbo's Birthday)"
p330
tp331
a(S'Paduana XI from: Pavans and Galliards'
p332
S'Galliarde'
p333
tp334
a(S'Confitebor tibi, Domine (Offertory)'
p335
S'Confitebor '
p336
tp337
a(S'Piano Sonata in Sonata in G, No.3, D894 - Menuetto_ Allegro moderato'
p338
S'Piano Sonata n18 D894'
p339
tp340
a(S'Piano Sonata in Sonata in G, No.1, D894 - Molto moderato e cantabile'
p341
S'Piano Sonata in Sonata in G, No.1, D894'
p342
tp343
a(g341
g339
tp344
a(S'13 Variations on a Theme by Anselm Hu\xcc\x88ttenbrenner D576 Theme'
p345
S'13 Variations on a Theme by Anselm Hu\xcc\x88ttenbrenner D576 3var'
p346
tp347
a(S'The Old Folks and the Old Home so Dear '
p348
S"Don't Forget the Old Folks "
p349
tp350
a(S'The Night Rogue and the Sifting Pig'
p351
S'The Skirt'
p352
tp353
a(g351
S'The Knee'
p354
tp355
a(S'Heilig ist die Jugendzeit (Gesang der Junglinge)'
p356
S'heiliger_ist_die_jugendzeit'
p357
tp358
a(S'kleine_klaviermusik_10'
p359
S'kleine_klaviermusik'
p360
tp361
a(S'kleine_klaviermusik_11'
p362
g360
tp363
a(S'kleine_klaviermusik_12'
p364
g360
tp365
a(S'kleine_klaviermusik_2'
p366
g360
tp367
a(S'kleine_klaviermusik_3'
p368
g360
tp369
a(S'kleine_klaviermusik_1'
p370
g360
tp371
a(S'kleine_klaviermusik_6'
p372
g360
tp373
a(S'kleine_klaviermusik_7'
p374
g360
tp375
a(S'kleine_klaviermusik_4'
p376
g360
tp377
a(S'kleine_klaviermusik_5'
p378
g360
tp379
a(S'kleine_klaviermusik_8'
p380
g360
tp381
a(S'kleine_klaviermusik_9'
p382
g360
tp383
a(S'Ancor che col partire (arr. Martin Brune)'
p384
S'ancor_che_col_partire'
p385
tp386
a(S'Mia benigna fortuna '
p387
S'mia_fortuna_benigna'
p388
tp389
a(S'in_exitu_israel'
p390
S'In Exitu Israel '
p391
tp392
a(S'Suite No.6 for Harpsichord '
p393
S'Suite No.  6 for harpsichord'
p394
tp395
a(S'Suite No. 11 for harpsichord'
p396
S'Suite No.11 for Harpsichord '
p397
tp398
a(S'Suite No.  8 for harpsichord'
p399
S'Suite No.8 for Harpsichord '
p400
tp401
a(S'Suite No. 09 for harpsichord'
p402
S'Suite No.9 for Harpsichord '
p403
tp404
a(S'Suite Premiere pour le Clavecin (First Suite for Harpsichord)'
p405
S'suite_pour_le_clavecin_7'
p406
tp407
a(g405
S'suite_pour_le_clavecin_12'
p408
tp409
a(g405
S'suite_pour_le_clavecin_10'
p410
tp411
a(g405
S'suite_pour_le_clavecin_11'
p412
tp413
a(S'Gavotte from Symphony No 4 (for S A T B)'
p414
S'Gavotte from Symphony No 4 (for S A T)'
p415
tp416
a(g414
S'Gavotte from Symphony No 4 (for A T)'
p417
tp418
a(g415
g417
tp419
a(S'Jesus lives - and I with him 2 [Choral] (Jesus lebt, mit ihm auch ich 2)'
p420
S'Jesus lebt, mit ihm auch ich'
p421
tp422
a(S'Schaffe in mir, Gott, ein reines Herze (motet, German text only)'
p423
S'schaffe_in_mir_gott'
p424
tp425
a(S'Der Bergmann: No. 4 "Es steht ein Kelch in der Kapelle"'
p426
S'Der Woywode'
p427
tp428
a(S'sonata_1_f-major_1'
p429
S'sonata_1_f-major_2'
p430
tp431
a(g429
S'sonata_1_f-major_3'
p432
tp433
a(S'arrangements_sonata_6_10_6'
p434
S'arrangements_sonata_6_10_1'
p435
tp436
a(g434
S'arrangements_sonata_6_10_2'
p437
tp438
a(g434
S'arrangements_sonata_6_10_3'
p439
tp440
a(S"Concerto grosso in G minor 'Fatto per la Notte di Natale', Op.6 No.8 "
p441
S'concerto_grosso_6_8'
p442
tp443
a(S'5th Movement from Sonata a Quattro (for S A T)'
p444
S'5th Movement from Sonata a Quattro (for S A T B)'
p445
tp446
a(S'sonata_for_violin_5_5'
p447
S'sonata_for_violin_5_6'
p448
tp449
a(g447
S'sonata_for_violin_5_7'
p450
tp451
a(g447
S'sonata_for_violin_5_8'
p452
tp453
a(S'arrangements_sonata_woo_1_6_6_1'
p454
S'arrangements_sonata_woo_1_6_6_2'
p455
tp456
a(g454
S'arrangements_sonata_woo_1_6_6_3'
p457
tp458
a(g454
S'arrangements_sonata_woo_1_6_6_4'
p459
tp460
a(g454
S'arrangements_sonata_woo_1_6_6_5'
p461
tp462
a(S'Prelude, Corrente & Sarabande'
p463
S'Sarabande'
p464
tp465
a(S'Fangt erst der Winter an in seinen Bart zu brummen'
p466
S'Fangt erst der Winter an'
p467
tp468
a(S'No. 3 A-minor Prelude, 3 part voice for piano'
p469
S'No. 3 A-minor Prelude, 4 part voice for piano'
p470
tp471
a(S"Midsummer Night Dream ''Dance Of Clowns''"
p472
S'Midsummer Night Dream'
p473
tp474
a(S'Midsummer Night Dream Song with Chorus'
p475
g473
tp476
a(S"Midsummer Night Dream ''Wedding march''"
p477
g473
tp478
a(S'Konzert in Form einer Deutschen BegrA\xcc\x83\xc2\xa4bnis-Mass Part II'
p479
S'Konzert in Form einer Deutschen BegrA\xcc\x83\xc2\xa4bnis-Missa'
p480
tp481
a(S'Die mit TrA\xcc\x83\xc2\xa4nen sA\xcc\x83\xc2\xa4en werden mit Freuden ernten No. 10'
p482
S'Die mit TrA\xcc\x83\xc2\xa4nen sA\xcc\x83\xc2\xa4en'
p483
tp484
a(S'Die Sieben Worte Jesu Christi am Kreuz(IV)'
p485
S'Die Sieben Worte Jesu Christi am Kreuz (V)'
p486
tp487
a(S'Das Wort ward Fleisch No. 17 (The Word Become Flesh)'
p488
S'Das Wort ward Fleisch'
p489
tp490
a(S'Two chorales for organ, No. 1, Dorian chorale'
p491
S'Choral Cistercien'
p492
tp493
a(S'Two chorales for organ, No. 2, Phrygian chorale'
p494
g492
tp495
a(S'Variations of "Lucis Creator": Variation 2'
p496
S'Variations of "Lucis Creator"'
p497
tp498
a(S'Vater unser im Himmelreich (Our Father, who art in heaven)'
p499
S'vater_unser_in_himmelreich'
p500
tp501
a(g499
S'Vater unser im Himmelreich '
p502
tp503
a(S'Wo Gott zum Haus nicht gibt sein Gunst'
p504
S'wo_gott_zum_haus_nicht'
p505
tp506
a(S'Mir ist ein scho\xcc\x88ns brauns Maidelein '
p507
S'Mir ist ein schons brauns Maidelein'
p508
tp509
a(S'mein_himmlischer_vater'
p510
S'Mein himmlischer Vater '
p511
tp512
a(S'Der Herr, der schickt den Jockel aus'
p513
S'Der Droschkengaul'
p514
tp515
a(S'Catalun\xcc\x83a (Curranda), No.2 from Suite Espanola'
p516
S'Cataluna (Curranda), No.2 from Suite Espanola'
p517
tp518
a(S'Danket Gott, denn er ist gut (Psalm 136)'
p519
S'Psalms '
p520
tp521
a(S'fugues_arranged_for_brass_quartet_1'
p522
S'Fugue'
p523
tp524
a(S'Petite Messe solennelle (2. Gloria 1) CA'
p525
S'Petite messe solennelle '
p526
tp527
a(S'string_quartet_18_violin-ii_2'
p528
S'string_quartet_18_violin-i_2'
p529
tp530
a(S'Missa Salve Regina '
p531
S'missa_salve_regina_5'
p532
tp533
a(g531
S'missa_salve_regina_4'
p534
tp535
a(g531
S'missa_salve_regina_3'
p536
tp537
a(g531
S'missa_salve_regina_2'
p538
tp539
a(g531
S'missa_salve_regina_1'
p540
tp541
a(S'livre_de_simphonies_1_2'
p542
S'livre_de_simphonies_2_1'
p543
tp544
a(S'livre_de_simphonies_1_1'
p545
S'livre_de_simphonies_1_6'
p546
tp547
a(g545
S'livre_de_simphonies_1_4'
p548
tp549
a(g545
S'livre_de_simphonies_1_5'
p550
tp551
a(g545
S'livre_de_simphonies_5_1'
p552
tp553
a(g545
g543
tp554
a(g550
g552
tp555
a(S'livre_de_simphonies_5_5'
p556
S'livre_de_simphonies_5_2'
p557
tp558
a(g556
S'livre_de_simphonies_5_3'
p559
tp560
a(g556
g552
tp561
a(g556
S'livre_de_simphonies_2_5'
p562
tp563
a(g557
g562
tp564
a(S'Orchestral Suite No.3 in D major, BWV 1068 (Bach, Johann Sebastian)'
p565
S'Also hat Gott die Welt geliebt, BWV 68 (Bach, Johann Sebastian)'
p566
tp567
a(S'"Air on the G String" from Orchestral Suite No. 3 in D Major'
p568
S'Suite No. 3'
p569
tp570
a(S'Jesu, meine Freude (Motet,  11th mvt:  Weicht, ihr Trauergeister)'
p571
S'Jesu meine Freude'
p572
tp573
a(S'Air on the G String (from the Orchestral Suite No. 2 in D Major, arr.)'
p574
S'"Air on the G String" from Orchestral Suite No. 2 in D Major, arr.'
p575
tp576
a(g574
S'Air on the G String (from Orchestral Suite No. 2 in D Major)'
p577
tp578
a(S'Sonata in G Minor (Sonata in E Minor, arr.)'
p579
S'Sonata in G minor: Adagio'
p580
tp581
a(g575
g577
tp582
a(S'Jesus bleibet meine Freude ("Jesu, Joy of Mans Desiring", short piano version)'
p583
S'Jesu, meine Freude'
p584
tp585
a(g583
S"Jesu, Joy of Man's Desiring"
p586
tp587
a(g583
S'Jesus bleibet meine Freude ("Jesu, Joy of Mans Desiring")'
p588
tp589
a(g583
S'Jesus bleibet meine Freude ("Jesu, Joy of Mans Desiring)'
p590
tp591
a(g583
S'Jesu, Joy of Mans Desiring'
p592
tp593
a(S'Canons (14) on the first 8 bass notes of the Aria from the Goldberg Variations 1'
p594
S'Aria'
p595
tp596
a(S'Herz und Mund und Tat und Leben (Choral Score)'
p597
S'Toccata und Fugue'
p598
tp599
a(S'Prelude and Fugue in C# Minor (Fugue)'
p600
S'Prelude and Fugue in C Major'
p601
tp602
a(S'4_versetti_e_canzona_g_minor'
p603
S'Canzona'
p604
tp605
a(S'Innsbruck, ich mus dich lassen (without text)'
p606
S'Innsbruck, ich muss dich lassen'
p607
tp608
a(S'Innsbruck, ich muss dich lassen (Innsbruck, I must leave you)'
p609
S'Innsbruck ich muss dich lassen'
p610
tp611
a(g609
S'Innsbruck ich muss dich lassen '
p612
tp613
a(S'The Moon Has Risen [Revised Arrangement] (Der Mond ist aufgegangen)'
p614
S'Der Mond ist aufgegangen'
p615
tp616
a(g614
S'Der Mond ist aufgegangen (The Moon Has Risen)'
p617
tp618
a(S'suite_4_d-major_4'
p619
S'suite_4_d-major_3'
p620
tp621
a(g619
S'suite_4_d-major_5'
p622
tp623
a(g619
S'fugue_4'
p624
tp625
a(g619
S'suite_D_4'
p626
tp627
a(g619
S'suite_4_d-major_1'
p628
tp629
a(S'suite_3_d-minor_3'
p630
S'suite_3_d-minor_7'
p631
tp632
a(g630
S'suite_3_d-minor_6'
p633
tp634
a(g630
S'suite_3_d-minor_5'
p635
tp636
a(g630
S'suite_3_d-minor_12'
p637
tp638
a(g630
S'suite_3_d-minor_4'
p639
tp640
a(g630
S'fugue_3'
p641
tp642
a(g630
S'suite_D_3'
p643
tp644
a(g630
S'suite_3_d-minor_10'
p645
tp646
a(S'suite_2_g-minor_2'
p647
S'suite_2_g-minor_5'
p648
tp649
a(g647
S'suite_2_g-minor_4'
p650
tp651
a(g647
S'suite_2_g-minor_7'
p652
tp653
a(g647
S'suite_2_g-minor_6'
p654
tp655
a(g647
S'suite_2_g-minor_9'
p656
tp657
a(g647
S'suite_2_g-minor_8'
p658
tp659
a(S'Afferentur regi (Offertory on Ps 45, 15+16)'
p660
S'afferentur_regi'
p661
tp662
a(S'Te Deum, part 3: Aeterna Fac cum Sanctis Tuis'
p663
S'te_deum'
p664
tp665
a(S'Te Deum, part 5: In te, Domine, Speravi'
p666
g664
tp667
a(S'Amazing Grace (German text)'
p668
S'Amazing Grace'
p669
tp670
a(S'Schone Nacht, du Liebesnacht (Barcarolle from the opera "Tales of Hoffmann")'
p671
S'Barcarole'
p672
tp673
a(g671
S'Schone Nacht, du Liebesnacht (Barcarolle from "Tales of Hoffmann")'
p674
tp675
a(S'sinfonia_1_1'
p676
S'sinfonia_1_2'
p677
tp678
a(g676
S'sinfonia_1_3'
p679
tp680
a(S'Do They Think of Me At Home?'
p681
S'Do They Think of Me at Home? '
p682
tp683
a(S'Nun liegen still die WA\xcc\x83\xc2\xa4lder (from the Christmas Cantata "...und wir sind noch ge'
p684
S'Nun liegen still die WA\xcc\x83\xc2\xa4lder'
p685
tp686
a(S"Mein erst' Gefuhl sei Preis und Dank (Morning Song)"
p687
S"Mein erst' Gefu\xcc\x88hl sei Preis und Dank "
p688
tp689
a(S'Kommt, kommt, den Herrn zu preisen (Church Hymn of Praise)'
p690
S'Kommt, kommt den Herrn zu preisen '
p691
tp692
a(S"Uschi's Advent Calender,  December 7th"
p693
S"Uschi's Advent Calender, December 17th"
p694
tp695
a(S"Uschi's Advent Calender, December 16th"
p696
S"Uschi's Advent Calender, December 6th"
p697
tp698
a(S"Uschi's Advent Calender, December 4th"
p699
S"Uschi's Advent Calender, December 14th"
p700
tp701
a(S"Uschi's Advent Calendar, December 5th"
p702
S"Uschi's Advent Calender, December 15th"
p703
tp704
a(S'Fa una Canzone senza note nere (Madrigal)'
p705
S'Fa una canzone senza note nere'
p706
tp707
a(g705
S'Fa una canzone (Madrigal)'
p708
tp709
a(S'Fantasia a\xcc\x80 4 '
p710
S'Fantasia'
p711
tp712
a(S'Deuxieme Suite, 2nd movement: Allegro con moto'
p713
S'Suite'
p714
tp715
a(S'Deuxieme Suite, 1st movement: Prelude pastorale'
p716
g714
tp717
a(S'Deuxieme Suite, 4th movement: Fina-Marche'
p718
g714
tp719
a(S'Deuxieme Suite, 3rd movement: Andantino'
p720
g714
tp721
a(S'3_miniatures_42_3'
p722
S'3_miniatures_42_1'
p723
tp724
a(S'Missa I from "VI. Missae Breves op. 1" (Agnus Dei: Original and arrangement)'
p725
S'Agnus Dei'
p726
tp727
a(S'Pavana 2'
p728
S'Pavan 2'
p729
tp730
a(S'Fantasia X'
p731
S'Fantasia'
p732
tp733
a(S'Winterseele (Winter Soul) for piano (four hands)'
p734
S'Poppyland for Piano'
p735
tp736
a(S'Der frA\xcc\x83\xc2\xb6hliche Rabe (The cheerful raven)'
p737
S'The Ravens'
p738
tp739
a(S'Goldene Jahre (The golden years)'
p740
S'Golden'
p741
tp742
a(S'Tedesca dita La Proficia '
p743
S'Tedesca La Proficia'
p744
tp745
a(S'Aubade (Loiseau dans le buisson), Dawn Serenade (The Bird in the Wood)'
p746
S'Aubade'
p747
tp748
a(S'Cantate Domino'
p749
S'cantate_domino'
p750
tp751
a(g749
S'Cantate Domino '
p752
tp753
a(g750
g752
tp754
a(S'Ave Regina Coelorum (antiphone, version for unaccompanied mixed choir)'
p755
S'Ave Regina Coelorum (antiphon, version for accompanied choir)'
p756
tp757
a(S"Pavane & Gaillarde 'Vous qui voulez' "
p758
S'Pavane'
p759
tp760
a(S'2nd Movement from Terzetto No 3 (for S A T B)'
p761
S'2nd Movement from Terzetto No 3 (for S A T)'
p762
tp763
a(S'2nd Movement from Terzetto No 4 (for S A T)'
p764
S'2nd Movement from Terzetto No 4 (for S A T B)'
p765
tp766
a(S'2nd Movement from Terzetto No 2 (for S A T B)'
p767
S'2nd Movement from Terzetto No 2 (for S A T)'
p768
tp769
a(S'Rondo (3rd Movement) from Terzetto No 3 (for S A T B)'
p770
S'Rondo (3rd Movement) from Terzetto No 3 (for S A T)'
p771
tp772
a(S'3rd Movement from Sonatina No 2 - for SATB'
p773
S'Sonatina'
p774
tp775
a(S'Air de la Petite Russie (Air from Little Russia) from 10 Themes and Variations'
p776
S'Variations'
p777
tp778
a(g776
S'Air Tirolien'
p779
tp780
a(g776
S'Air russe (Russian Air) from Ten Themes and Variations'
p781
tp782
a(S'Sonata for Violin and Piano ("Spring Sonata") No. 5 in F Major, 3rd mvt'
p783
S'Sonata Presto'
p784
tp785
a(g783
S'Piano Sonata No.27, 3rd'
p786
tp787
a(g783
S'Piano Sonata n25'
p788
tp789
a(g783
S'Piano Sonata n24'
p790
tp791
a(g783
S'Piano Sonata n27'
p792
tp793
a(g783
S'Piano Sonata n20'
p794
tp795
a(g783
S'Piano Sonata n22'
p796
tp797
a(S'Variations on a Waltz by Anton Diabelli (No. 30 of 33)'
p798
g777
tp799
a(S'Sonata ("Spring Sonata"), Op. 24  for violin and piano 2nd + 3rd mvts'
p800
S'Hammerklavier Sonata, 3rd mvt'
p801
tp802
a(S'Symphony No. 6 "Pastorale" "The awakening of happy feelings on arriving in the c'
p803
S'In the Hope'
p804
tp805
a(g803
S'The Secret'
p806
tp807
a(S'String Quartet No. 9 in C major, 2.nd mvt: Andante con moto quasi Allegretto (A'
p808
S'Allegretto'
p809
tp810
a(S'Lied aus der Ferne (Als mir noch die Trane der Sehnsucht ...)'
p811
S'Der Vielfras'
p812
tp813
a(S'Piano Sonata ("Moonlight Sonata") No. 14, 1st mvt'
p814
S'Piano Sonata No.27'
p815
tp816
a(g814
S'Piano Sonata No.23'
p817
tp818
a(S'Dir, Gott Vater, dir sei Ehre'
p819
S'Dir, Gott Vater, dir sei  Ehre'
p820
tp821
a(S'Trio Sonata in B-flat major, HWV 388 (Handel, George Frideric)'
p822
S'trio_sonata'
p823
tp824
a(S'Sonata in B: 3rd Movement Un poco largo'
p825
S'Largo'
p826
tp827
a(S'Trio Sonata in G major, QV 2:Anh.26 '
p828
g823
tp829
a(S'Trio Sonata in A minor, QV 2:40 '
p830
g823
tp831
a(S'Sonata in B: 2nd Movement Allegro'
p832
S'Allegro'
p833
tp834
a(S'Trio sonata in D Major, 1st mvt'
p835
g823
tp836
a(S'Allegro in D major '
p837
g833
tp838
a(S'Alleluja! Resurrexit Christus (motet)'
p839
S'Alleluja! Resurrexit Christus (motet 2)'
p840
tp841
a(S'concerto_2_2'
p842
S'concerto_2_1'
p843
tp844
a(S"Fors seulement l'actente que je meure "
p845
S'fors_seulement_l-actente_que_je_meure'
p846
tp847
a(S'wind_quintet_67_3_1'
p848
S'wind_quintet_67_1_3'
p849
tp850
a(S'wind_quintet_67_3_3'
p851
S'wind_quintet_67_3_2'
p852
tp853
a(g851
S'wind_quintet_67_2_3'
p854
tp855
a(g851
g849
tp856
a(g852
g854
tp857
a(S'wind_quintet_68_3_3'
p858
S'wind_quintet_68_3_1'
p859
tp860
a(S'wind_quintet_67_2_1'
p861
S'wind_quintet_67_1_2'
p862
tp863
a(S'wind_quintet_67_2_2'
p864
g854
tp865
a(g864
g862
tp866
a(S'wind_quintet_68_2_2'
p867
S'wind_quintet_68_2_4'
p868
tp869
a(g867
S'wind_quintet_68_3_2'
p870
tp871
a(S'wind_quintet_56_3_3'
p872
S'wind_quintet_56_3_2'
p873
tp874
a(S'wind_quintet_56_2_1'
p875
S'wind_quintet_56_1_2'
p876
tp877
a(S'wind_quintet_56_2_2'
p878
S'wind_quintet_56_2_3'
p879
tp880
a(g878
S'wind_quintet_56_2_4'
p881
tp882
a(g878
g876
tp883
a(S'wind_quintet_68_1_1'
p884
S'wind_quintet_68_1_2'
p885
tp886
a(g884
S'wind_quintet_68_1_3'
p887
tp888
a(S'Frohlichkeit in dem Herrn ("Der Herr hat Groses an uns getan")'
p889
S'Fro\xcc\x88hlichkeit in dem Herrn '
p890
tp891
a(S'Suite 15 Padouana'
p892
S'Padouana'
p893
tp894
a(S'Suite 1 Allemande'
p895
S'Allemande'
p896
tp897
a(S'Mir nach, spricht Christus, unser Held (ecumenical chorale)'
p898
S'Mir nach, spricht Christus, unser Held'
p899
tp900
a(S'suites_2_2'
p901
S'suites_2_1'
p902
tp903
a(S'Suite 13 Padouana'
p904
S'paduana'
p905
tp906
a(S'Grande Valse de Concert'
p907
S'Valse'
p908
tp909
a(S'Christus, der ist mein Leben (A\xcc\x83\xc2\x96kumenischer Choral in G)'
p910
S'Christus, der ist mein Leben'
p911
tp912
a(S'Hinunter ist der Sonne Schein 2D (Ecumenical Evening Song)'
p913
S'Hinunter ist der Sonne Schein'
p914
tp915
a(S'Gelobt sei Gott im hA\xcc\x83\xc2\xb6chsten Thron (Easter Chorale)'
p916
S'gelobt_sei_gott'
p917
tp918
a(S'Piano Method Pieces 31 to 40'
p919
S'piano_pieces_31_40'
p920
tp921
a(S'Suite No. 1'
p922
S'Suite'
p923
tp924
a(S'monica_air_and_variations'
p925
S'Monica '
p926
tp927
a(S'Chorus of the Hebrew Slaves (from "Nabucco")'
p928
S'Nabucco '
p929
tp930
a(S'Va, pensiero, sull\'ali dorate (Chorus of the Hebrew Slaves from "Nabucco")'
p931
S'Chorus of the Hebrew Slaves (Va, pensiero)'
p932
tp933
a(S'Concerto a cinque in F Major for Violin, Strings, Organ and Continuo: 2. '
p934
S'Concerto a cinque'
p935
tp936
a(S'Adagio (2nd Movement) from Sinfonia in G (for A T)'
p937
S'adagio'
p938
tp939
a(S'Concerto for 2 Oboes in C major, Op.9 No.9 '
p940
S'Sonata No.  9'
p941
tp942
a(S'concerto_d_9_2_2'
p943
S'concerto_d_9_2_3'
p944
tp945
a(g943
S'concerto_d_9_2_1'
p946
tp947
a(S'concerto_f_9_3_3'
p948
S'concerto_f_9_3_2'
p949
tp950
a(S'Meditation from the opera "Thais" (transcription)'
p951
S'Meditation from "Thais"'
p952
tp953
a(S'Galliard XI - for SAT'
p954
S'Galliard XI - for SATB'
p955
tp956
a(S'Intrada II - for SATB'
p957
S'Intrada II - for SAT'
p958
tp959
a(S'Courante VI - for SATB'
p960
S'Courante VI - for SAT'
p961
tp962
a(S'Courante V - for SATB'
p963
S'Courante V - for SAT'
p964
tp965
a(S'Trio sonata in G Major (1st mvt: Adagio) for violin, obligato cembalo and basso '
p966
S'Trio sonata in G Major (1st mvt: Adagio) for violin, obligato cembalo and basso'
p967
tp968
a(S'Souvenirs de Munich'
p969
S'Souvenirs'
p970
tp971
a(S'Sei, Seele, stark und furchte nicht 2 (Choral, 3 Strophes)'
p972
S'Sei, Seele, stark und furchte nicht (Choral)'
p973
tp974
a(S'Chantons je vous prie Noe\xcc\x88l hautement autre '
p975
S'Chantons je vous prie Noe\xcc\x88l hautement '
p976
tp977
a(S'Komm, Gott Schopfer, heiliger Geist (Come, God the Creator, come, Holy Ghost)'
p978
S'Komm, Gott Scho\xcc\x88pfer, heiliger Geist '
p979
tp980
a(S'Gen Himmel fahrt der Herre Christ (Christ ascending heavenward)'
p981
S'Gen Himmel fa\xcc\x88hrt der Herre Christ '
p982
tp983
a(S'Meine Seufzer, meine Tra\xcc\x88nen, BWV 13 (Bach, Johann Sebastian)'
p984
S'Ach Gott, wie manches Herzeleid, BWV 3 (Bach, Johann Sebastian)'
p985
tp986
a(S'Guitar Concert D Major (arr. for Guitar, Flute and Piano by Andreas Wittkopf)'
p987
S'Lute Concerto'
p988
tp989
a(S'Concert for Violin, Strings and Double Bass D Minor: 3rd Movement'
p990
S'Violin Concert D Minor: 3rd Movement'
p991
tp992
a(S'Cello Sonata in A major '
p993
S'Sonata in A Major'
p994
tp995
a(S'Cantate Domino  No.2: Cantate Domino'
p996
S'Cantate Domino No. 1: Overture'
p997
tp998
a(S'Songs in all keys (Range from e to eA\xcc\x82\xc2\xb4)'
p999
S'Songs in all keys from e to eA\xcc\x82\xc2\xb4'
p1000
tp1001
a(S'Doch der Herr vergisst der Seinen nicht (But the Lord is mindful of his own)'
p1002
S'Der Mond.'
p1003
tp1004
a(S'Im Advent (Lasset uns frohlocken) from "Sechs geistliche Spruche" (Six Sacred Pr'
p1005
S'Im Advent (Lasset uns frohlocken)'
p1006
tp1007
a(S'Lied ohne Worte (Song without Words) - Spinnerlied (Spinning Song)'
p1008
S'A Song without Words'
p1009
tp1010
a(g1008
S'Song without Words 15'
p1011
tp1012
a(S'Veni Sancte Spiritus '
p1013
S'veni_sancte_spiritus'
p1014
tp1015
a(g1013
S'veni_sancte_spiritu'
p1016
tp1017
a(S'Speciosa facta es '
p1018
S'speciosa_fact_es'
p1019
tp1020
a(g1018
S'speciosa_facta_es'
p1021
tp1022
a(S'ave_maris_stella'
p1023
S'Ave maris stella '
p1024
tp1025
a(g1014
g1016
tp1026
a(S'Panis angelicus (arr. for accompanied solo voice)'
p1027
S'Panis Angelicus'
p1028
tp1029
a(S'andreas_christi_famulus-a_8'
p1030
S'andreas_christi_famulus'
p1031
tp1032
a(S'Oboe Concerto No. 3 in G Minor, 3rd mvt'
p1033
S'Concerto in G minor '
p1034
tp1035
a(S'Concerto grosso in C Major "Alexanderfest", 2nd mvt Largo'
p1036
S'Largo'
p1037
tp1038
a(S'Organ Concerto No. 7 in Bb major 1. Andante'
p1039
S'Concerto'
p1040
tp1041
a(S'6 Fugues for the Organ: Fugue 6'
p1042
S'6 Fugues for the Organ: Fugue 5'
p1043
tp1044
a(g1042
S'6 Fugues for the Organ: Fugue 4'
p1045
tp1046
a(g1042
S'6 Fugues for the Organ: Fugue 3'
p1047
tp1048
a(g1042
S'6 Fugues for the Organ: Fugue 2'
p1049
tp1050
a(g1042
S'6 Fugues for the Organ: Fugue 1'
p1051
tp1052
a(S'As from the Power of the Sacred Lays (Final Chorus from "Ode for St. Cecilias Da'
p1053
S'Minuet from the "Wassermusik"'
p1054
tp1055
a(S'clarinet_concerto_1_1'
p1056
S'clarinet_concerto_1_2'
p1057
tp1058
a(g1056
S'clarinet_concerto_1_3'
p1059
tp1060
a(S'Morgenglanz der Ewigkeit (ecumenical hymn)'
p1061
S'Morgenglanz der Ewigkeit'
p1062
tp1063
a(S'Jesu, meines Herzens Freud '
p1064
S'jesu_meines_herzens_freud'
p1065
tp1066
a(S'Das Jesus siegt, bleibt ewig ausgemacht 2 (Choral)'
p1067
S'Das Jesus siegt, bleibt ewig ausgemacht'
p1068
tp1069
a(S'Prelude in E minor, Op. 28 No. 4 Largo'
p1070
S'Preludes, Op.28 '
p1071
tp1072
a(S'Etude in C minor (Revolutionary), arr. Waldhorn and piano'
p1073
S'Revolutionary'
p1074
tp1075
a(S"Prelude n03 op28 ''Thou Art So Like A Flower''"
p1076
S'preludes'
p1077
tp1078
a(S'Prelude in D minor, Op. 28 No. 24'
p1079
g1077
tp1080
a(S'Etude No.7 in C Major Opus.10, No.7'
p1081
S'Etude in C Major'
p1082
tp1083
a(S'Prelude in c minor, Op. 28 No. 10'
p1084
g1077
tp1085
a(S'concerto_2_21_2'
p1086
S'concerto_2_21_3'
p1087
tp1088
a(S'etude_10_10'
p1089
S'etude_10_11'
p1090
tp1091
a(S'Mazurka C-sharp Minor'
p1092
S'Mazurka e-minor'
p1093
tp1094
a(S'motets_pour_le_temp_de_noel_4'
p1095
S'motets_4'
p1096
tp1097
a(S'motets_pour_le_temp_de_noel_3'
p1098
S'motets_3'
p1099
tp1100
a(S'motets_pour_le_temp_de_noel_2'
p1101
S'motets_2'
p1102
tp1103
a(S'motets_pour_le_temp_de_noel_1'
p1104
S'motets_1'
p1105
tp1106
a(S'Ciacona in F minor, T.206 '
p1107
S'Ciacona in f'
p1108
tp1109
a(S"Fughetta on 'Ach Gott, vom Himmel Sieh darein' "
p1110
S'Ach Gott vom Himmel sieh darein '
p1111
tp1112
a(S'Magnificat Fugue, T.111 '
p1113
S'Magnificat'
p1114
tp1115
a(S'major_organ_works_buxwv-153'
p1116
S'major_organ_works_buxwv-150'
p1117
tp1118
a(g1116
S'major_organ_works_buxwv-157'
p1119
tp1120
a(g1116
S'major_organ_works_buxwv-156'
p1121
tp1122
a(g1116
S'major_organ_works_buxwv-155'
p1123
tp1124
a(g1116
S'major_organ_works_buxwv-154'
p1125
tp1126
a(g1116
S'major_organ_works_buxwv-159'
p1127
tp1128
a(g1117
g1119
tp1129
a(g1117
g1121
tp1130
a(g1117
g1123
tp1131
a(g1117
g1125
tp1132
a(g1117
g1127
tp1133
a(g1119
g1121
tp1134
a(g1119
g1123
tp1135
a(g1119
g1125
tp1136
a(g1119
g1127
tp1137
a(g1121
g1123
tp1138
a(g1121
g1125
tp1139
a(g1121
g1127
tp1140
a(g1123
g1125
tp1141
a(g1123
g1127
tp1142
a(g1125
g1127
tp1143
a(S'Auf meinen lieben Gott, Choral arrangement in E'
p1144
S'Auf meinen lieben Gott'
p1145
tp1146
a(S'major_organ_works_buxwv-140'
p1147
S'major_organ_works_buxwv-141'
p1148
tp1149
a(g1147
S'major_organ_works_buxwv-142'
p1150
tp1151
a(g1147
S'major_organ_works_buxwv-143'
p1152
tp1153
a(g1147
S'major_organ_works_buxwv-144'
p1154
tp1155
a(g1147
S'major_organ_works_buxwv-145'
p1156
tp1157
a(g1147
S'major_organ_works_buxwv-146'
p1158
tp1159
a(g1147
S'major_organ_works_buxwv-148'
p1160
tp1161
a(g1147
S'major_organ_works_buxwv-149'
p1162
tp1163
a(g1148
g1150
tp1164
a(g1148
g1152
tp1165
a(g1148
g1154
tp1166
a(g1148
g1156
tp1167
a(g1148
g1158
tp1168
a(g1148
g1160
tp1169
a(g1148
g1162
tp1170
a(g1150
g1152
tp1171
a(g1150
g1154
tp1172
a(g1150
g1156
tp1173
a(g1150
g1158
tp1174
a(g1150
g1160
tp1175
a(g1150
g1162
tp1176
a(g1152
g1154
tp1177
a(g1152
g1156
tp1178
a(g1152
g1158
tp1179
a(g1152
g1160
tp1180
a(g1152
g1162
tp1181
a(g1154
g1156
tp1182
a(g1154
g1158
tp1183
a(g1154
g1160
tp1184
a(g1154
g1162
tp1185
a(g1156
g1158
tp1186
a(g1156
g1160
tp1187
a(g1156
g1162
tp1188
a(g1158
g1160
tp1189
a(g1158
g1162
tp1190
a(g1160
g1162
tp1191
a(S'major_organ_works_buxwv-152'
p1192
S'major_organ_works_buxwv-151'
p1193
tp1194
a(S'chorale-preludes_buxwv-186'
p1195
S'chorale-preludes_buxwv-187'
p1196
tp1197
a(g1195
S'chorale-preludes_buxwv-184'
p1198
tp1199
a(g1195
S'chorale-preludes_buxwv-185'
p1200
tp1201
a(g1195
S'chorale-preludes_buxwv-183'
p1202
tp1203
a(g1195
S'chorale-preludes_buxwv-180'
p1204
tp1205
a(g1196
g1198
tp1206
a(g1196
g1200
tp1207
a(g1196
g1202
tp1208
a(g1196
g1204
tp1209
a(g1198
g1200
tp1210
a(g1198
g1202
tp1211
a(g1198
g1204
tp1212
a(g1200
g1202
tp1213
a(g1200
g1204
tp1214
a(g1202
g1204
tp1215
a(S'Wir danken dir, Herr Jesu Christ (We Thank You, Lord Jesus Christ)'
p1216
S'Wir danken dir, Herr Jesu Christ, BuxWV 224 '
p1217
tp1218
a(S'Von Gott will ich nicht lassen, BuxWV 220 '
p1219
S'Von Gott will ich nicht lassen'
p1220
tp1221
a(S'chorale-preludes_buxwv-199'
p1222
S'chorale-preludes_buxwv-198'
p1223
tp1224
a(S'chorale-preludes_buxwv-218'
p1225
S'chorale-preludes_buxwv-217'
p1226
tp1227
a(g1225
S'chorale-preludes_buxwv-211'
p1228
tp1229
a(g1226
g1228
tp1230
a(S'major_organ_works_buxwv-160'
p1231
S'major_organ_works_buxwv-164'
p1232
tp1233
a(g1231
S'buxwv-163'
p1234
tp1235
a(g1231
S'buxwv-165'
p1236
tp1237
a(g1231
S'buxwv-168'
p1238
tp1239
a(S'chorale-preludes_buxwv-206'
p1240
S'chorale-preludes_buxwv-200'
p1241
tp1242
a(g1240
S'chorale-preludes_buxwv-202'
p1243
tp1244
a(g1241
g1243
tp1245
a(g1232
g1234
tp1246
a(g1232
g1236
tp1247
a(g1232
g1238
tp1248
a(S'chorale-preludes_buxwv-224'
p1249
S'chorale-preludes_buxwv-223'
p1250
tp1251
a(g1249
S'chorale-preludes_buxwv-222'
p1252
tp1253
a(g1249
S'chorale-preludes_buxwv-221'
p1254
tp1255
a(g1250
g1252
tp1256
a(g1250
g1254
tp1257
a(g1252
g1254
tp1258
a(S'major_organ_works_buxwv-137'
p1259
S'major_organ_works_buxwv-136'
p1260
tp1261
a(g1259
S'major_organ_works_buxwv-139'
p1262
tp1263
a(g1260
g1262
tp1264
a(S"April Is in My Mistress' Face "
p1265
S'April Is in My Mistress  Face'
p1266
tp1267
a(S'The man is blest that hath not bent (Psalme 1) (2)'
p1268
S'The man is blest that hath not bent (Psalme 1)'
p1269
tp1270
a(S"April is in my mistress' face"
p1271
S'April is in my mistress face'
p1272
tp1273
a(S'Piano version of Bachs two part inventions No.6'
p1274
S'Piano version of Bachs two part inventions No..'
p1275
tp1276
a(S'Piano version of Bachs two part inventions No.15'
p1277
g1275
tp1278
a(S'Piano version of Bachs two part inventions No.14'
p1279
g1275
tp1280
a(S'Piano version of Bachs two part inventions No.13'
p1281
g1275
tp1282
a(S'Piano version of Bachs two part inventions No.12'
p1283
g1275
tp1284
a(S'Piano version of Bachs two part inventions No.11'
p1285
g1275
tp1286
a(S'Bwv0582 Passacaglia and Fugue (Orchestral)'
p1287
S'Bwv0582 Passacaglia and Fugue'
p1288
tp1289
a(S'Piano version of Bachs two part inventions No.3'
p1290
g1275
tp1291
a(S'Piano version of Bachs two part inventions No.1'
p1292
g1275
tp1293
a(S'Piano version of Bachs two part inventions No.7'
p1294
g1275
tp1295
a(S'Piano version of Bachs two part inventions No.4'
p1296
g1275
tp1297
a(S'Piano version of Bachs two part inventions No.9'
p1298
g1275
tp1299
a(S'Piano version of Bachs two part inventions No.5'
p1300
g1275
tp1301
a(g1275
S'Piano version of Bachs two part inventions No.8'
p1302
tp1303
a(S'Ehre sei Gott in der Hohe (Glory to God in the Highest)'
p1304
S'In Silence'
p1305
tp1306
a(S'In heilger Nacht (In the Holy Night)'
p1307
g1305
tp1308
a(S'sonatas_flauto_traversiere_2_1'
p1309
S'sonatas_flauto_traversiere_1_2'
p1310
tp1311
a(S'sonatas_flauto_traversiere_2_2'
p1312
S'sonatas_flauto_traversiere_2_3'
p1313
tp1314
a(g1312
g1310
tp1315
a(g1312
S'sonatas_flauto_traversiere_5_2'
p1316
tp1317
a(g1312
S'sonatas_flauto_traversiere_4_2'
p1318
tp1319
a(g1312
S'sonatas_flauto_traversiere_2_4'
p1320
tp1321
a(g1312
S'sonatas_flauto_traversiere_3_2'
p1322
tp1323
a(g1312
S'sonatas_flauto_traversiere_6_2'
p1324
tp1325
a(g1313
g1322
tp1326
a(S'sonatas_flauto_traversiere_1_3'
p1327
S'sonatas_flauto_traversiere_3_1'
p1328
tp1329
a(S'sonatas_flauto_traversiere_1_1'
p1330
S'sonatas_flauto_traversiere_4_1'
p1331
tp1332
a(g1330
S'sonatas_flauto_traversiere_5_1'
p1333
tp1334
a(g1330
g1328
tp1335
a(g1330
S'sonatas_flauto_traversiere_6_1'
p1336
tp1337
a(g1318
g1320
tp1338
a(S'sonatas_flauto_traversiere_3_3'
p1339
g1322
tp1340
a(g1339
S'sonatas_flauto_traversiere_6_3'
p1341
tp1342
a(S'Sonatina 1 in C Major Nr. 1 Allegretto'
p1343
S'Sonata'
p1344
tp1345
a(g1343
S'Allegretto'
p1346
tp1347
a(S'Fughetta'
p1348
S'Fughetta I'
p1349
tp1350
a(S'Prelude II'
p1351
S'Prelude'
p1352
tp1353
a(S'Der trA\xcc\x83\xc2\xa4umende See (Der See ruht tief im blauen Traum)'
p1354
S'Der Soldat'
p1355
tp1356
a(S'Helf mir Gott, wie fliegen die GA\xcc\x83\xc2\xa4nse (Romanze vom GA\xcc\x83\xc2\xa4nsebuben)'
p1357
S'Romanze'
p1358
tp1359
a(S'Der arme Peter (Der Hans und die Grete ...)'
p1360
S'Der Zeisig'
p1361
tp1362
a(S'Der trA\xcc\x83\xc2\xa4umende See ("Der See ruht tief im blauen Traum")'
p1363
S'Der SchatzgrA\xcc\x83\xc2\xa4ber'
p1364
tp1365
a(S'Gigue from Duet Sonata No 9 (for A T)'
p1366
S'Sonata No.9 '
p1367
tp1368
a(S'Gigue from Duet Sonata No 7 (for S A T B)'
p1369
S'Gigue from Duet Sonata No 7 (for S T)'
p1370
tp1371
a(g1369
S'Gigue from Duet Sonata No 7 (for A T)'
p1372
tp1373
a(g1369
S'Gigue from Duet Sonata No 7 (for S A T)'
p1374
tp1375
a(S'Allegro from Duet Sonata No 9 (for S A T B)'
p1376
S'Allegro from Duet Sonata No 9 (for S A T)'
p1377
tp1378
a(g1376
S'Allegro from Duet Sonata No 9 (for A T)'
p1379
tp1380
a(S'Gigue from Duet Sonata No 9 (for S A T B)'
p1381
S'Gigue from Duet Sonata No 9 (for S T)'
p1382
tp1383
a(g1372
g1374
tp1384
a(g1377
g1379
tp1385
a(S'gran_piano_sonata_2_2'
p1386
S'gran_piano_sonata_2_3'
p1387
tp1388
a(S'Komm, Gott Scho\xcc\x88pfer, heiliger Geist '
p1389
S'Komm, Gott Schopfer, Heilger Geist'
p1390
tp1391
a(S'Verleih uns Frieden gna\xcc\x88diglich '
p1392
S'Verleih uns Frieden gnadiglich'
p1393
tp1394
a(S'Erhalt uns, Herr, bei deinem Wort'
p1395
S'Erhalt uns, Herr, bei deinem Wort '
p1396
tp1397
a(g1395
S'erhalt_uns_herr_bei_deinem_wort'
p1398
tp1399
a(g1396
g1398
tp1400
a(S'Duet Number Eleven for Alto Saxophone in E flat and Trombone in C'
p1401
S'Duet Number Eight for Alto Saxophone in E flat'
p1402
tp1403
a(S'Geburtstasmarsch auch Heinrichsmarsch'
p1404
S'Geburtstagsmarsch auch Heinrichsmarsch'
p1405
tp1406
a(S'Lob der Musik (Wer sich die Musik erkiest) (Piano Part)'
p1407
S'Lob der Musik'
p1408
tp1409
a(g1407
S'Lob der Musik (Piano Part)'
p1410
tp1411
a(S'Gaudeamus igitur (Traditional Student Song)'
p1412
S'Gaudeamus Igitur'
p1413
tp1414
a(S'six_sonates_pour_le_clavecin_1_1'
p1415
S'six_sonates_pour_le_clavecin_4_1'
p1416
tp1417
a(g1415
S'six_sonates_pour_le_clavecin_3_1'
p1418
tp1419
a(g1415
S'six_sonates_pour_le_clavecin_6_1'
p1420
tp1421
a(S'Guitar-Skole no. 7 : Andante (Studies in Style, no. 3) '
p1422
S'Guitar-Skole no. 4 : Andante '
p1423
tp1424
a(g1422
S'Polonaise No.3 Andante'
p1425
tp1426
a(S'Choix de mes fleurs cheries: No. 1 Le Myrte (Arr.)'
p1427
S'No. 1'
p1428
tp1429
a(S'Choix de mes fleurs cheries: No. 5 Le Romarin (Arr.)'
p1430
S'No. 5'
p1431
tp1432
a(S'Choix de mes fleurs cheries: No. 4 Le Jasmin (Arr.)'
p1433
S'No. 4'
p1434
tp1435
a(S'Waltz for 2 Guitars Nr. 2'
p1436
S'Waltz for 2 Guitars Nr. 1'
p1437
tp1438
a(S'Canzona nona La Battera - for SATBCB'
p1439
S'canzona_la_battera'
p1440
tp1441
a(S'auf_verwachsenem_pfade_1_1'
p1442
S'auf_verwachsenem_pfade_1_3'
p1443
tp1444
a(g1442
S'auf_verwachsenem_pfade_1_2'
p1445
tp1446
a(S'Etude fur den Anfang (Etude for the Beginning)'
p1447
S'Etude fur den Anfang (Beginning Etude)'
p1448
tp1449
a(g1447
S'Tremolo Etude'
p1450
tp1451
a(g1448
g1450
tp1452
a(S'Macht und Gute des Schopfers (Den Herren will ich preisen)'
p1453
S'Macht und Gute des Schopfers'
p1454
tp1455
a(S'Macht und Gute des Schopfers (mit Oberstimme)'
p1456
g1454
tp1457
a(S'ricercari_su_bach'
p1458
S'ricercari_su_bach_2'
p1459
tp1460
a(g1458
S'ricercari_su_bach_1'
p1461
tp1462
a(S'livre_d-orgue_4_5'
p1463
S'livre_d-orgue_5_4'
p1464
tp1465
a(S'livre_d-orgue_4_4'
p1466
S'livre_d-orgue_4_7'
p1467
tp1468
a(g1466
S'livre_d-orgue_4_6'
p1469
tp1470
a(g1466
S'livre_d-orgue_4_1'
p1471
tp1472
a(g1466
S'livre_d-orgue_4_3'
p1473
tp1474
a(g1466
S'livre_d-orgue_4_2'
p1475
tp1476
a(g1466
S'livre_d-orgue_2_4'
p1477
tp1478
a(g1466
S'livre_d-orgue_3_4'
p1479
tp1480
a(g1466
S'livre_d-orgue_4_8'
p1481
tp1482
a(g1466
g1464
tp1483
a(g1466
S'livre_d-orgue_1_4'
p1484
tp1485
a(g1471
g1484
tp1486
a(g1473
g1479
tp1487
a(g1475
g1477
tp1488
a(S'livre_d-orgue_2_5'
p1489
S'livre_d-orgue_5_2'
p1490
tp1491
a(S'livre_d-orgue_2_3'
p1492
S'livre_d-orgue_3_2'
p1493
tp1494
a(S'livre_d-orgue_2_2'
p1495
S'livre_d-orgue_2_1'
p1496
tp1497
a(g1495
g1493
tp1498
a(g1495
S'livre_d-orgue_2_9'
p1499
tp1500
a(g1495
S'livre_d-orgue_2_8'
p1501
tp1502
a(g1495
g1490
tp1503
a(g1495
S'livre_d-orgue_1_2'
p1504
tp1505
a(g1495
S'livre_d-orgue_2_10'
p1506
tp1507
a(g1496
g1504
tp1508
a(S'livre_d-orgue_3_5'
p1509
S'livre_d-orgue_5_3'
p1510
tp1511
a(S'livre_d-orgue_3_3'
p1512
S'livre_d-orgue_3_1'
p1513
tp1514
a(g1512
g1510
tp1515
a(g1512
S'livre_d-orgue_1_3'
p1516
tp1517
a(g1513
g1516
tp1518
a(S'livre_d-orgue_5_5'
p1519
S'livre_d-orgue_5_6'
p1520
tp1521
a(g1519
S'livre_d-orgue_1_5'
p1522
tp1523
a(g1519
S'livre_d-orgue_5_1'
p1524
tp1525
a(S'livre_d-orgue_1_1'
p1526
g1504
tp1527
a(g1526
g1516
tp1528
a(g1526
g1484
tp1529
a(g1526
g1522
tp1530
a(g1526
S'livre_d-orgue_1_6'
p1531
tp1532
a(g1526
S'livre_d-orgue_1_8'
p1533
tp1534
a(g1526
S'livre_d-orgue_1_9'
p1535
tp1536
a(g1526
g1524
tp1537
a(g1522
g1524
tp1538
a(S'symphony_3_1'
p1539
S'symphony_1_3'
p1540
tp1541
a(S'symphony_3_3'
p1542
S'symphony_3_4'
p1543
tp1544
a(g1542
S'symphony_3_5'
p1545
tp1546
a(g1542
S'symphony_3_6'
p1547
tp1548
a(g1542
S'symphony_10_3'
p1549
tp1550
a(g1542
g1540
tp1551
a(g1542
S'symphony_4_3'
p1552
tp1553
a(g1542
S'symphony_5_3'
p1554
tp1555
a(g1543
g1552
tp1556
a(g1545
g1554
tp1557
a(S'symphony_1_4'
p1558
S'symphony_4_1'
p1559
tp1560
a(S'symphony_1_1'
p1561
g1559
tp1562
a(g1561
S'symphony_5_1'
p1563
tp1564
a(S'symphony_4_4'
p1565
S'symphony_5_4'
p1566
tp1567
a(g1565
S'symphony_9_4'
p1568
tp1569
a(S'suite_2_2_courante'
p1570
S'suite_1_2_courante'
p1571
tp1572
a(S'Agnus Dei '
p1573
S'Agnus '
p1574
tp1575
a(S'Atalanta Fugiens No.19'
p1576
S'atalanta_19'
p1577
tp1578
a(S'Atalanta Fugiens No.18'
p1579
S'atalanta_18'
p1580
tp1581
a(S'Atalanta Fugiens No.15'
p1582
S'atalanta_15'
p1583
tp1584
a(S'Atalanta Fugiens No.14'
p1585
S'atalanta_14'
p1586
tp1587
a(S'Atalanta Fugiens No.17'
p1588
S'atalanta_17'
p1589
tp1590
a(S'Atalanta Fugiens No.16'
p1591
S'atalanta_16'
p1592
tp1593
a(S'Atalanta Fugiens No.11'
p1594
S'atalanta_11'
p1595
tp1596
a(S'Atalanta Fugiens No.10'
p1597
S'atalanta_10'
p1598
tp1599
a(S'Atalanta Fugiens No.13'
p1600
S'atalanta_13'
p1601
tp1602
a(S'Atalanta Fugiens No.12'
p1603
S'atalanta_12'
p1604
tp1605
a(S'Lobe den Herrn, meine Seele'
p1606
S'Lobe den Herrn, meine Seele!'
p1607
tp1608
a(S'"Gestrandet" (Adaptation from the Pocahontas-Story) from "Musical Stories"'
p1609
S'"Ballonreise" from "Musical Stories"'
p1610
tp1611
a(S'Herr, deine Gute reicht so weit (Psalm 36, 6 and Psalm 57, 11)'
p1612
S'Herr, deine Gute'
p1613
tp1614
a(S'Fantasia a 5 No.5 '
p1615
S'Fantasia a 5 No.10 '
p1616
tp1617
a(g1615
S'Fantasia a 5 No.3 '
p1618
tp1619
a(g1615
S'Fantasia a 5 No.9 '
p1620
tp1621
a(S'Wir wollen alle frohlich sein, 2 Intonations and 2 Accompanying movements in C'
p1622
S'Wir wollen alle frohlich sein, 2 Intonations and 2 Accompanying Movements'
p1623
tp1624
a(S'Lamentio Sanctae Matris Ecclesiae Constantinopolitanae '
p1625
S'lamentio_sanctae_matris'
p1626
tp1627
a(S'Ave Regina coelorum a 3 '
p1628
S'Ave Regina Coelorum'
p1629
tp1630
a(S'Missa Aeterna Christi munera: Gloria'
p1631
S'Gloria'
p1632
tp1633
a(S"Dean's Blues"
p1634
S'Deans Blues'
p1635
tp1636
a(S"Saturday's Lament"
p1637
S'Saturdays Lament'
p1638
tp1639
a(S'Shoguns Lament'
p1640
S"Shogun's Lament"
p1641
tp1642
a(S"Lo, how a Rose e'er blooming (Es ist ein' Ros entsprungen) String quartet versio"
p1643
S'Lo, how a rose eer blooming (Es ist ein Reis entsprungen)'
p1644
tp1645
a(g1643
S'Es ist ein Ros entsprungen'
p1646
tp1647
a(S'Ein Kind geborn zu Bethlehem (New Arrangement)'
p1648
S'Ein Kind geborn zu Bethlehem'
p1649
tp1650
a(S'Venite exultemus (Psalm 95 set for Strings)'
p1651
S'Venite exultemus (Psalm 95)'
p1652
tp1653
a(S'pavan_to_the_earl_of_salisbury'
p1654
S'Earl of Salisbury Pavan'
p1655
tp1656
a(S'Pavan and Two Galliards, The Earl of Salisbury '
p1657
S'Pavane (The Earl of Sulisbury)'
p1658
tp1659
a(S'preludes_and_fantasias_65'
p1660
S'Fantasia'
p1661
tp1662
a(S'preludes_and_fantasias_67'
p1663
g1661
tp1664
a(S'preludes_and_fantasias_66'
p1665
g1661
tp1666
a(S'preludes_and_fantasias_61'
p1667
g1661
tp1668
a(S'preludes_and_fantasias_59'
p1669
g1661
tp1670
a(S'preludes_and_fantasias_60'
p1671
g1661
tp1672
a(S'preludes_and_fantasias_63'
p1673
g1661
tp1674
a(S'preludes_and_fantasias_64'
p1675
g1661
tp1676
a(S'Ballet de la jeunesse '
p1677
S'ballet_de_la_jeunesse_3'
p1678
tp1679
a(g1677
S'ballet_de_la_jeunesse_2'
p1680
tp1681
a(g1677
S'ballet_de_la_jeunesse_1'
p1682
tp1683
a(S'NA\xcc\x82\xc2\xba. 3. Andante by Beethoven.'
p1684
S'Andante by Beethoven'
p1685
tp1686
a(S'NA\xcc\x82\xc2\xba. 7. Le Petit Tambour.'
p1687
S'Le Petit Tambour'
p1688
tp1689
a(S'NA\xcc\x82\xc2\xba. 5. French Air.'
p1690
S'French Air '
p1691
tp1692
a(S'Prelude and Fugue in D minor, Cocquiel 360 (Kerckhoven, Abraham van den)'
p1693
S'Fugue in A minor '
p1694
tp1695
a(S'Wer mich liebet, der wird mein Wort halten, BWV 59 (Bach, Johann Sebastian)'
p1696
S'Wo soll ich fliehen hin, BWV 5 (Bach, Johann Sebastian)'
p1697
tp1698
a(S'Wachet auf, ruft uns die Stimme, BWV 645 (Bach, Johann Sebastian)'
p1699
g1697
tp1700
a(S'Etude No. 6 - Allegro'
p1701
S'Etude No. 6'
p1702
tp1703
a(S'Etude 3 - Melodic Etude'
p1704
S'Etude 1'
p1705
tp1706
a(g1704
S'Etude No. 3'
p1707
tp1708
a(S'Sonata con risposta di flauto (Sonata in Sol Maggiore)'
p1709
S'sonata_iii'
p1710
tp1711
a(S'Sonata in Re Minore (Sonata in D minor)'
p1712
S'Sonata in C Major'
p1713
tp1714
a(S'What shall we do with the drunken sailor'
p1715
S'What Shall We Do with the Drunken Sailor?'
p1716
tp1717
a(S'Duos galants No. 5: Rigaudon I and II'
p1718
S'Rigaudon '
p1719
tp1720
a(S'12 Charakter Stucke fur Orgel VII. In Memoriam (12 character piece for organ VII'
p1721
S'12 Character Pieces for Organ (V. Visione)'
p1722
tp1723
a(g1721
S'12 Mood Pieces for Organ VIII. Pastoral'
p1724
tp1725
a(g1721
S'12 Character Pieces for Organ (I. Preludio)'
p1726
tp1727
a(S'Abendlied ("Bleib bei uns, denn es will Abend werden")'
p1728
S'Abendlied (Bleib bei uns, denn es will Abend werden)'
p1729
tp1730
a(S'Zo zag ik Hem...(Songbook)'
p1731
S'Zo zag ik Hem (Songbook)'
p1732
tp1733
a(S'De vader van de verloren zonen (Songbook)'
p1734
S'De palmboom (Songbook)'
p1735
tp1736
a(S'Mazurka opus.24 No.1'
p1737
S'Mazurka opus.1'
p1738
tp1739
a(S'Mazurka opus.24 No.3'
p1740
S'Mazurka opus.3'
p1741
tp1742
a(S'Mazurka opus.24 No.2'
p1743
S'Mazurka opus.2'
p1744
tp1745
a(S'etude_8_8'
p1746
S'etude_8_9'
p1747
tp1748
a(S'Ubi duo vel tres congregati fuerint, SV 211 '
p1749
S'Ubi Duo'
p1750
tp1751
a(S'Der Geist hilft unsrer Schwachheit auf, BWV 226 (Bach, Johann Sebastian)'
p1752
S'Ach Gott, vom Himmel sieh darein, BWV 2 (Bach, Johann Sebastian)'
p1753
tp1754
a(S'Die bA\xcc\x83\xc2\xb6se Farbe (Ich mA\xcc\x83\xc2\xb6chte ziehn in die Welt ...)'
p1755
S'Die Nonne'
p1756
tp1757
a(S'Der Wanderer an den Mond (Ich auf der Erd, am Himmel du)'
p1758
S'Der Wanderer an den Mond'
p1759
tp1760
a(S'Der SchA\xcc\x83\xc2\xa4fer und der Reiter (Ein SchA\xcc\x83\xc2\xa4fer saA\xcc\x83\xc2\x9f im GrA\xcc\x83\xc2\xbcnen)'
p1761
S'Der FlA\xcc\x83\xc2\xbcchtling'
p1762
tp1763
a(g1761
S'Der SchatzgrA\xcc\x83\xc2\xa4ber'
p1764
tp1765
a(g1761
S'Der VatermA\xcc\x83\xc2\xb6rder'
p1766
tp1767
a(S'Die Wehmut - Die Herbstnacht (Mit leisen HarfentA\xcc\x83\xc2\xb6nen a\xcc\x82\xc2\x80\xc2\xa6)'
p1768
S'Wehmuth'
p1769
tp1770
a(g1768
S'Die Berge'
p1771
tp1772
a(S'Litanei auf das Fest Aller Seelen (RuhA\xcc\x82\xc2\xb4n in Frieden alle Seelen)'
p1773
S'Liane'
p1774
tp1775
a(S'Der JA\xcc\x83\xc2\xbcngling und der Tod (Die Sonne sinkt, o kA\xcc\x83\xc2\xb6nnt ich a\xcc\x82\xc2\x80\xc2\xa6)'
p1776
S'Der Zufriedene'
p1777
tp1778
a(g1776
S'Der Liedler'
p1779
tp1780
a(g1776
S'Der Wanderer'
p1781
tp1782
a(g1776
S'Der Pilgrim'
p1783
tp1784
a(S'Der JA\xcc\x83\xc2\xbcngling am Bache (An der Quelle saA\xcc\x83\xc2\x9f der Knabe)'
p1785
g1781
tp1786
a(g1785
g1783
tp1787
a(S'Der Flug der Zeit'
p1788
g1781
tp1789
a(g1788
g1783
tp1790
a(S'Le Carnaval des Animaux (1886), 8. Personnages a\xcc\x80 longues oreilles'
p1791
S'Le carnaval des animaux '
p1792
tp1793
a(S'Le Carnaval des Animaux (1886), 1. Introduction et Marche du Lion'
p1794
g1792
tp1795
a(S'Ave Verum (motet)'
p1796
S'Ave verum'
p1797
tp1798
a(S'Good Morning, Dear Sun'
p1799
S'Good Morning Dear Sun'
p1800
tp1801
a(S'Furchte dich nicht, denn ich hab dich erloset (Fear not, for I have Redeemed You'
p1802
S'Furchte dich nicht'
p1803
tp1804
a(S'Kommt her zu mir, spricht Gottes Sohn (Choral-Motette)'
p1805
S'Kommt her zu mir, spricht Gottes Sohn'
p1806
tp1807
a(S'The Crucifixion: 15. Recitative: The Adoration of the Crucified'
p1808
S'The First Nowell '
p1809
tp1810
a(S'The Crucifixion: 18. The Appeal of the Crucified'
p1811
g1809
tp1812
a(S'pieces_d-orgue_sue_les_8_tones_suite_3_8'
p1813
S'pieces_d-orgue_sue_les_8_tones_suite_3_5b'
p1814
tp1815
a(S'pieces_d-orgue_sue_les_8_tones_suite_3_3'
p1816
S'pieces_d-orgue_sue_les_8_tones_suite_3_2'
p1817
tp1818
a(g1816
S'pieces_d-orgue_sue_les_8_tones_suite_3_7'
p1819
tp1820
a(g1816
S'pieces_d-orgue_sue_les_8_tones_suite_3_6'
p1821
tp1822
a(g1816
S'pieces_d-orgue_sue_les_8_tones_suite_3_5'
p1823
tp1824
a(g1816
S'pieces_d-orgue_sue_les_8_tones_suite_3_4'
p1825
tp1826
a(g1816
S'pieces_d-orgue_sue_les_8_tones_suite_2_3'
p1827
tp1828
a(g1816
S'pieces_d-orgue_sue_les_8_tones_suite_3_9'
p1829
tp1830
a(g1816
S'pieces_d-orgue_sue_les_8_tones_suite_3_1'
p1831
tp1832
a(g1817
g1827
tp1833
a(S'pieces_d-orgue_sue_les_8_tones_suite_2_8'
p1834
S'pieces_d-orgue_sue_les_8_tones_suite_2_9'
p1835
tp1836
a(g1834
S'pieces_d-orgue_sue_les_8_tones_suite_2_2'
p1837
tp1838
a(g1834
g1827
tp1839
a(g1834
S'pieces_d-orgue_sue_les_8_tones_suite_2_1'
p1840
tp1841
a(g1834
S'pieces_d-orgue_sue_les_8_tones_suite_2_6'
p1842
tp1843
a(g1834
S'pieces_d-orgue_sue_les_8_tones_suite_2_7'
p1844
tp1845
a(g1834
S'pieces_d-orgue_sue_les_8_tones_suite_2_4'
p1846
tp1847
a(g1834
S'pieces_d-orgue_sue_les_8_tones_suite_2_5'
p1848
tp1849
a(g1837
g1827
tp1850
a(g1837
g1840
tp1851
a(g1837
g1842
tp1852
a(g1837
g1844
tp1853
a(g1837
g1846
tp1854
a(g1837
g1848
tp1855
a(S'Vater unser im Himmelreich; Wo Gott zum Haus nicht gibt sein Gunst'
p1856
S'wo_gott_zum_haus'
p1857
tp1858
a(S'Uns ist ein Kind geboren: 4. Coro'
p1859
S'Uns ist ein Kind geboren '
p1860
tp1861
a(S'Uns ist ein Kind geboren: 2. Coro'
p1862
g1860
tp1863
a(S'Orchestral Suite No.3 in D major, BWV 1068 (Bach, Johann Sebastian)'
p1864
S'Also hat Gott die Welt geliebt, BWV 68 (Bach, Johann Sebastian)'
p1865
tp1866
a(S'Tantum ergo sacramentum (Hymn)'
p1867
S'Tantum ergo'
p1868
tp1869
a(S'Angloise (arr.)'
p1870
S'Angloise'
p1871
tp1872
a(S'Nocturne No.1 in E flat Major'
p1873
S'Nocturne'
p1874
tp1875
a(S'Nocturne No. 12 (14)'
p1876
g1874
tp1877
a(g1874
S'Nocturne 2'
p1878
tp1879
a(S'Exercise - Small variation on Mozarta\xcc\x82\xc2\x80\xc2\x98s Sonata in C, 330, 1st mvt. - Melancholic'
p1880
S'Exercise - Sonatina, 1st mvt'
p1881
tp1882
a(S'Exercise - Small variation on Mozarta\xcc\x82\xc2\x80\xc2\x98s Sonata in C, 330, 1st mvt. - Phlegmatic'
p1883
g1881
tp1884
a(S'Die Nacht (Die Hohn und Walder schon steigen)'
p1885
S'Die Lotosblume'
p1886
tp1887
a(S'Sollt ich meinem Gott nicht singen? 2 (Choral)'
p1888
S'Sollt ich meinem Gott nicht singen'
p1889
tp1890
a(S"O heil'ge Nacht (Minuit, Chretiens)"
p1891
S'Minuit, chretiens'
p1892
tp1893
a(S'A la cubana'
p1894
S'A Stroll'
p1895
tp1896
a(S'Heiligste Nacht (German Christmas song)'
p1897
S'Heiligste Nacht'
p1898
tp1899
a(S'Wie lieblich ist der Maien (Religious Springtime Song)'
p1900
S'Wie lieblich ist der Maien'
p1901
tp1902
a(S'Symphony No. 6 in C Major, 2nd mvt'
p1903
S'Symphony in C Major, 2nd mvt'
p1904
tp1905
a(S'Symphony No. 6 in C Major, 4th mvt'
p1906
S'Symphony in C Major, 4th mvt'
p1907
tp1908
a(S'Symphony No. 6 in C Major, 1st mvt'
p1909
S'Symphony in C Major, 1st mvt'
p1910
tp1911
a(S'Quartet Movement: Andante sostenuto in C Major'
p1912
S'Quartet movement: Andante in C Major'
p1913
tp1914
a(S'Fruhmorgens, wenn die Hahne krahn (Waldandacht)'
p1915
S'Waldandacht'
p1916
tp1917
a(S'The Lord, Our God (Herr, unser Gott)'
p1918
S'Lord, Our God'
p1919
tp1920
a(S'Herbstlied (Autumn Song, German text)'
p1921
S'Autumn Song'
p1922
tp1923
a(S'Veni, Creator Spiritus 2 (Pfingsthymnus)'
p1924
S'Veni Creator Spiritus'
p1925
tp1926
a(S'recercari-et-canzoni-francesi_canzon_francese_i'
p1927
S'Canzone'
p1928
tp1929
a(S'Canzon Terza a\xcc\x80 3. Due Bassi e Canto '
p1930
g1928
tp1931
a(S'messa_1_1'
p1932
S'messa_1_3'
p1933
tp1934
a(g1932
S'messa_1_2'
p1935
tp1936
a(S'Toccata per Spinettina e Violino (Toccata for spinet and violin)'
p1937
S'Toccata terza'
p1938
tp1939
a(S'Concerto in A Major for Oboe damore and Orchestra, 1st mvt'
p1940
S"Concert for oboe d'amore and orchestra in A-major"
p1941
tp1942
a(S'Adeste fideles in F major '
p1943
S'Adeste '
p1944
tp1945
a(S'Ruf und Antwort (Call and Answer) for Flute and Accordion'
p1946
S'Duo for Flute and Accordion'
p1947
tp1948
a(S'Recercada quinta pars sobre tenores Italianos '
p1949
S'Recercada quinta sobre tenores Italianos '
p1950
tp1951
a(S"Recercada prima sobre 'O Felici Occhi Miei' "
p1952
S'Recercada primera '
p1953
tp1954
a(S'Recercada quarta sobre tenores Italianos '
p1955
S'Recercada quarta '
p1956
tp1957
a(S"Recercada segunda sobre 'O Felici Occhi Miei' "
p1958
S'Recercada segunda '
p1959
tp1960
a(S'Siehe zu, dass deine Gottesfurcht, BWV 179 (Bach, Johann Sebastian)'
p1961
S'Musikalisches Opfer, BWV 1079 (Bach, Johann Sebastian)'
p1962
tp1963
a(S'The Grace of the Lord - Psalm 103'
p1964
S'The Lord Giveth'
p1965
tp1966
a(S'wind_quintets_1_1'
p1967
S'wind_quintets_1_2'
p1968
tp1969
a(g1967
S'wind_quintets_1_3'
p1970
tp1971
a(g1967
S'wind_quintets_2_1'
p1972
tp1973
a(g1968
g1972
tp1974
a(S'wind_quintets_2_2'
p1975
g1972
tp1976
a(S'wind_quintets_3_3'
p1977
S'wind_quintets_3_1'
p1978
tp1979
a(S'poi_che_ad_irene'
p1980
S'Poi che ad Irene '
p1981
tp1982
a(S'Freuet euch der schonen Erde (EG 510 O)'
p1983
S'Freuet euch der schonen Erde'
p1984
tp1985
a(S'Fantasia 15'
p1986
S'Fantasia'
p1987
tp1988
a(S'Fantasia 17'
p1989
g1987
tp1990
a(S'Fantasia 16'
p1991
g1987
tp1992
a(S'Fantasia 13'
p1993
g1987
tp1994
a(S'Fantasia 12'
p1995
g1987
tp1996
a(S'Fantasia 19'
p1997
g1987
tp1998
a(S'Fantasia 18'
p1999
g1987
tp2000
a(S'Fantasia in G'
p2001
g1987
tp2002
a(S'Fantasia in F'
p2003
g1987
tp2004
a(S'Fantasia in C'
p2005
g1987
tp2006
a(S'Fantasia 3'
p2007
g1987
tp2008
a(S'Fantasia 2'
p2009
g1987
tp2010
a(S'Fantasia 5'
p2011
g1987
tp2012
a(S'Fantasia 4'
p2013
g1987
tp2014
a(S'Fantasia 7'
p2015
g1987
tp2016
a(S'Fantasia 6'
p2017
g1987
tp2018
a(S'Fantasia 8'
p2019
g1987
tp2020
a(S'Fantasia 9 '
p2021
g1987
tp2022
a(S'Fantasia 20'
p2023
g1987
tp2024
a(S'Trumpet Tune '
p2025
S'Trumpet Tune'
p2026
tp2027
a(S"The Prince of Denmark's March"
p2028
S"Prince of Denmark's March "
p2029
tp2030
a(g2028
S"Prince of Denmark' March"
p2031
tp2032
a(g2029
g2031
tp2033
a(S'A\xcc\x83\xc2\x89tude No. 11'
p2034
S'A\xcc\x83\xc2\x89tude'
p2035
tp2036
a(g2034
S'A\xcc\x83\xc2\x89tude No.11'
p2037
tp2038
a(S'A\xcc\x83\xc2\x89tude No. 14'
p2039
g2035
tp2040
a(g2039
S'A\xcc\x83\xc2\x89tude No.14'
p2041
tp2042
a(S'Wunsch und Entsagung von I. F Castelli (Wish and Relinquishment by I. F Castelli'
p2043
S'Der unschuldige Zweifel by I. F Castelli'
p2044
tp2045
a(g2043
S'Ich bin dein by I. F Castelli'
p2046
tp2047
a(S'ricercaries_13-retuned'
p2048
S'ricercaries_10-retuned'
p2049
tp2050
a(g2048
S'ricercaries_11-retuned'
p2051
tp2052
a(g2048
S'ricercaries_14-retuned'
p2053
tp2054
a(g2048
S'ricercaries_3-retuned'
p2055
tp2056
a(S'ricercaries_2-retuned'
p2057
S'ricercaries_5-retuned'
p2058
tp2059
a(g2057
S'ricercaries_9-retuned'
p2060
tp2061
a(g2057
S'ricercaries_6-retuned'
p2062
tp2063
a(g2057
S'ricercaries_8-retuned'
p2064
tp2065
a(g2057
g2055
tp2066
a(g2058
g2060
tp2067
a(g2058
g2062
tp2068
a(g2058
g2064
tp2069
a(g2058
g2055
tp2070
a(g2060
g2062
tp2071
a(g2060
g2064
tp2072
a(g2060
g2055
tp2073
a(g2049
g2051
tp2074
a(g2049
g2053
tp2075
a(g2062
g2064
tp2076
a(g2062
g2055
tp2077
a(g2051
g2053
tp2078
a(g2064
g2055
tp2079
a(S'ricercaries_1-retuned'
p2080
S'ricercaries_4-retuned'
p2081
tp2082
a(g2080
S'ricercaries_7-retuned'
p2083
tp2084
a(g2080
S'ricercaries_12-retuned'
p2085
tp2086
a(g2081
g2083
tp2087
a(S'Flute Music based on Bach, Prelude BWV 999 with Variations'
p2088
S"Love Songs without Words for Bach's Prelude BWV 999"
p2089
tp2090
a(g2088
S'Flute Music to Bach, Prelude BWV 999 with Variations'
p2091
tp2092
a(S'Wer konnte leben. Melodie 3'
p2093
S'Wer konnte leben'
p2094
tp2095
a(S'Wer konnte leben. Melodie 2'
p2096
g2094
tp2097
a(g2089
g2091
tp2098
a(S'Des Sommers letzte Rose ("Letzte Rose, wie magst du so einsam bluhn?")'
p2099
S'Des Sommers letzte Rose'
p2100
tp2101
a(S'Sonata a\xcc\x80 cinque in D major, G.7 '
p2102
S'Sonata a\xcc\x80 cinque in D major '
p2103
tp2104
a(S'Paduane No. 11 (for recorders SATB)'
p2105
S'Paduane (for recorders SATB)'
p2106
tp2107
a(S'Six divertissements pour la guitare, nA\xcc\x82\xc2\xb02 Waltz'
p2108
S'Divertissements pour la guitare, nA\xcc\x82\xc2\xb02 Waltz'
p2109
tp2110
a(S'Tambourin (from "Pieces de Clavecin")'
p2111
S'Tambourin'
p2112
tp2113
a(S'The Entertainer '
p2114
S'The Entertainer'
p2115
tp2116
a(S'Original Rags'
p2117
S'original_rags'
p2118
tp2119
a(S'Something Doing (Etwas los)'
p2120
S'Something Doing'
p2121
tp2122
a(S'The Chrysanthemum - An Afro-American Intermezzo'
p2123
S'The Chrysanthemum'
p2124
tp2125
a(S'The Entertainer (arr. for recorders PPSATBB)'
p2126
S'entertainer'
p2127
tp2128
a(S'Ave Maria for Tenor, Choir and Organ '
p2129
S'Ave Maria for Choir '
p2130
tp2131
a(S'4 Songs without Words No. 4'
p2132
S'4 Songs without Words No. 3'
p2133
tp2134
a(g2132
S'4 Songs without Words No. 2'
p2135
tp2136
a(g2132
S'4 Songs without Words No. 1'
p2137
tp2138
a(g2132
S'9 Songs without Words No. 4'
p2139
tp2140
a(S'4 Dances No. 4'
p2141
S'4 Dances No. 3'
p2142
tp2143
a(g2141
S'4 Dances No. 2'
p2144
tp2145
a(g2141
S'4 Dances No. 1'
p2146
tp2147
a(S'2 Songs without Words No. 2'
p2148
S'Prelude 2'
p2149
tp2150
a(g2148
S'9 Songs without Words No. 2'
p2151
tp2152
a(S'4 Honky Tonk Types No. 4'
p2153
S'8 Honky Tonk Types No. 4'
p2154
tp2155
a(S'3 Studies No. 3'
p2156
S'3 Studies No. 1'
p2157
tp2158
a(S'2 Honky Tonk Types No. 2'
p2159
g2149
tp2160
a(g2159
S'8 Honky Tonk Types No. 2'
p2161
tp2162
a(S'3 Dances No. 3'
p2163
S'3 Dances No. 1'
p2164
tp2165
a(S'4 Improvisations No. 4'
p2166
S'4 Improvisations No. 2'
p2167
tp2168
a(g2166
S'4 Improvisations No. 1'
p2169
tp2170
a(S'Audite nova'
p2171
S'Audite nova '
p2172
tp2173
a(S'Streichquartett Nr. 2 Satz. 2 Andante (String quartet No. 2, 2nd movement (2 Ada'
p2174
S'String Quartet'
p2175
tp2176
a(S'String quartet No.2, 3rd movement,  3 Scherzo'
p2177
g2175
tp2178
a(S'Ubungsstuck, Variation 29 (Practice Piece, Variation 29)'
p2179
S'Variations 10'
p2180
tp2181
a(g2179
S'Variations 24'
p2182
tp2183
a(g2179
S'25 Variations'
p2184
tp2185
a(S'Marsch  7 - 14 (March)'
p2186
S'Auerbacher March'
p2187
tp2188
a(g2186
S'March  4-15'
p2189
tp2190
a(S'Marsch: Buntes Herbstlaub (March: Colorful Autumn Leaves)'
p2191
S'March: "Optimismus"'
p2192
tp2193
a(g2191
S'March 11-11'
p2194
tp2195
a(g2191
S'March  2-13'
p2196
tp2197
a(g2191
S'March  2-14'
p2198
tp2199
a(g2191
S'March 5-14'
p2200
tp2201
a(g2191
S'March 4'
p2202
tp2203
a(g2191
S'March  6-10'
p2204
tp2205
a(g2191
S'March  5-13'
p2206
tp2207
a(g2191
S'March 5-09'
p2208
tp2209
a(g2191
S'March 4-14'
p2210
tp2211
a(g2191
S'Sommerregen, March'
p2212
tp2213
a(g2191
S'March 6-08'
p2214
tp2215
a(g2191
S'March  3-13'
p2216
tp2217
a(g2191
S'Goltzschtal March'
p2218
tp2219
a(g2191
S'March 6-14'
p2220
tp2221
a(g2191
S'March: October'
p2222
tp2223
a(S'Blockfloten-Duett Nr 1 (Duet for recorders No.1)'
p2224
S'Tango 1'
p2225
tp2226
a(S'Blockfloten-Duett Nr. 2 (Recorders-Duet No. 2)'
p2227
S'Czardas 2'
p2228
tp2229
a(g2227
S'Slowfox 2'
p2230
tp2231
a(S'Langsamer Walzer 2 (Slow Waltz 2)'
p2232
g2230
tp2233
a(S'Langsamer Walzer 7 (Slow-moving Waltz 7)'
p2234
S'Serenade 7'
p2235
tp2236
a(S'6 Trio Sonatas (Pla, Joan Baptista)'
p2237
S'6 Trio Sonatas '
p2238
tp2239
a(S'Trio Sonata in D minor, DolP 3.6 '
p2240
g2238
tp2241
a(S'MA\xcc\x83\xc2\xa4dchenpreis des fahrenden SA\xcc\x83\xc2\xa4ngers'
p2242
S'MA\xcc\x83\xc2\xa4dchenpreis'
p2243
tp2244
a(S'6 Trio Sonatas (Pla, Jose\xcc\x81)'
p2245
S'6 Trio Sonatas '
p2246
tp2247
a(S'Sonata for 2 cornetts and 3 trombones and basso continuo in e'
p2248
S'Sonata for cornett and 3 trombones'
p2249
tp2250
a(S'Wann du nur glucklich bist  (2)'
p2251
S'Wann du nur glucklich bist'
p2252
tp2253
a(S'Bleiberger Adventjodler (Advent yodel from Bleiberg)'
p2254
S'Bleiberger Adventjodler'
p2255
tp2256
a(g2254
S'Advent'
p2257
tp2258
a(S'Der Winter dehnt das weite Land'
p2259
S'Der Winter dehnt'
p2260
tp2261
a(S'Weil`s langsam Zeit werd (2)'
p2262
S'Weils langsam Zeit werd'
p2263
tp2264
a(S'Weil`s langsam Zeit werd (1)'
p2265
S'Weil`s langsam Zeit werd'
p2266
tp2267
a(S'Noel X (concert piece for recorder ensemble)'
p2268
S'noel'
p2269
tp2270
a(S'Mass in C Major "Coronation Mass" Benedictus Part C'
p2271
S'Mass in C Major "Coronation Mass" Benedictus Part B'
p2272
tp2273
a(g2271
S'Mass in C Major "Coronation Mass" Benedictus Part A'
p2274
tp2275
a(S'Kirchensonate No. 11 (Epistle Sonata, Sonata da chiesa, Church Sonata) in D Majo'
p2276
S'Sonata No. 4 in G major'
p2277
tp2278
a(g2276
S'Sonata No. 7 in C major'
p2279
tp2280
a(g2276
S'Sonata No. 6 in G major'
p2281
tp2282
a(g2276
S'Church Sonata No. 17 in C Major'
p2283
tp2284
a(g2276
S'Sonata in D Major'
p2285
tp2286
a(g2276
S'Sonata No 11 1st Movement'
p2287
tp2288
a(g2276
S'Sonata No. 8 in D major'
p2289
tp2290
a(g2276
S'Sonatina in C Major'
p2291
tp2292
a(g2276
S'Kirchensonate No. 10 (Church Sonata) in F Major'
p2293
tp2294
a(g2276
S'Sonata in Bb major'
p2295
tp2296
a(g2276
S'Sonata No. 2 in D major'
p2297
tp2298
a(S'Kirchensonate No.  3 (Epistle Sonata, Sonata da Chiesa, Church Sonata) in D Majo'
p2299
S'Sonata No. 3 in Bb major'
p2300
tp2301
a(g2299
S'Viennese Sonatina No. 3'
p2302
tp2303
a(g2299
g2279
tp2304
a(g2299
g2281
tp2305
a(g2299
g2283
tp2306
a(g2299
g2285
tp2307
a(g2299
g2289
tp2308
a(g2299
g2291
tp2309
a(g2299
g2293
tp2310
a(g2299
g2295
tp2311
a(g2299
g2297
tp2312
a(S'Kirchensonate (Epistle Sonata, Church Sonata, Sonata da Chiesa) No. 15 in C Majo'
p2313
g2279
tp2314
a(g2313
g2281
tp2315
a(g2313
g2283
tp2316
a(g2313
g2285
tp2317
a(g2313
S'Kirchensonate (Epistle Sonata, Church Sonata, Sonata da Chiesa) in C'
p2318
tp2319
a(g2313
g2289
tp2320
a(g2313
g2291
tp2321
a(g2313
g2293
tp2322
a(g2313
g2295
tp2323
a(g2313
g2297
tp2324
a(S'Kirchensonate (Epistle Sonata, Sonata da Chiesa, Church Sonata) No. 12 in C Majo'
p2325
g2279
tp2326
a(g2325
g2281
tp2327
a(g2325
g2283
tp2328
a(g2325
g2285
tp2329
a(g2325
g2318
tp2330
a(g2325
g2289
tp2331
a(g2325
g2291
tp2332
a(g2325
g2293
tp2333
a(g2325
g2295
tp2334
a(g2325
g2297
tp2335
a(S'Mass in C Major "Coronation Mass" Credo Part C'
p2336
S'Mass in C Major "Coronation Mass" Credo Part B'
p2337
tp2338
a(S'Kirchensonate No.  5 (Epistle Sonata, Sonata da Chiesa, Church Sonata) in F Majo'
p2339
g2279
tp2340
a(g2339
g2281
tp2341
a(g2339
S'Sonata No. 5 in Eb major'
p2342
tp2343
a(g2339
g2283
tp2344
a(g2339
g2285
tp2345
a(g2339
g2289
tp2346
a(g2339
g2291
tp2347
a(g2339
g2293
tp2348
a(g2339
g2295
tp2349
a(g2339
g2297
tp2350
a(g2339
S'Kirchensonate (Epistle Sonata, Sonata da chiesa, Church Sonata) in F Major'
p2351
tp2352
a(S'Kirchensonate No.  8 in A Major (Epistle Sonata, Sonata da Chiesa, Church Sonata'
p2353
g2279
tp2354
a(g2353
g2281
tp2355
a(g2353
g2283
tp2356
a(g2353
S'Sonata in A major, 1st mvt'
p2357
tp2358
a(g2353
g2285
tp2359
a(g2353
g2289
tp2360
a(g2353
g2291
tp2361
a(g2353
g2293
tp2362
a(g2353
g2295
tp2363
a(g2353
g2297
tp2364
a(S'Kirchensonate No. 13 (Epistle Sonata, Sonata da chiesa, Church Sonata) in G Majo'
p2365
g2281
tp2366
a(g2365
S'Sonatina G Major (Arr.)'
p2367
tp2368
a(g2365
g2283
tp2369
a(g2365
g2285
tp2370
a(g2365
g2289
tp2371
a(g2365
g2291
tp2372
a(g2365
g2293
tp2373
a(g2365
g2295
tp2374
a(g2365
g2297
tp2375
a(S'Kirchensonate No.  1 (Sonata da chiesa, Church Sonata, Epistle Sonata) in Eb Maj'
p2376
g2342
tp2377
a(g2376
g2285
tp2378
a(g2376
S'Kirchensonate No.  1 (Epistle Sonata, Sonata da chiesa, Church Sonata) in Eb Maj'
p2379
tp2380
a(g2376
g2295
tp2381
a(S'Missa Brevis in Bb Major (Part 1: Kyrie, vocal parts only)'
p2382
S'Missa brevis in D Major (Part 1: Kyrie)'
p2383
tp2384
a(g2382
S'Missa brevis in D major (vocal parts)'
p2385
tp2386
a(S'Kirchensonate No.  4 (Epistle Sonata, Sonata da Chiesa, Church Sonata) in D Majo'
p2387
g2285
tp2388
a(g2387
g2289
tp2389
a(g2387
g2291
tp2390
a(g2387
g2293
tp2391
a(g2387
g2295
tp2392
a(g2387
g2297
tp2393
a(S'Kirchensonate No.  6 (Epistle Sonata, Sonata da Chiesa, Church Sonata) in B Majo'
p2394
S'Violin Sonata in Bb Major'
p2395
tp2396
a(g2394
g2289
tp2397
a(g2394
g2291
tp2398
a(g2394
g2293
tp2399
a(g2394
g2295
tp2400
a(g2394
g2297
tp2401
a(g2379
g2295
tp2402
a(S'Mass in C Major "Coronation Mass" Sanctus Part A'
p2403
S'Mass in C Major ("Coronation Mass"), Sanctus'
p2404
tp2405
a(S'Kirchensonate (Sonata da Chiesa, Church Sonata, Epistle Sonata) No. 17 in C Majo'
p2406
g2293
tp2407
a(g2406
g2295
tp2408
a(g2406
g2297
tp2409
a(S'Kirchensonate No.  7 (Epistle Sonata, Sonata da Chiesa, Church Sonata) in B Majo'
p2410
g2293
tp2411
a(g2410
g2295
tp2412
a(g2410
g2297
tp2413
a(S'Kirchensonate No. 11 (Epistle Sonata, Sonata da chiesa, Church Sonata) in F Majo'
p2414
g2297
tp2415
a(g2414
g2351
tp2416
a(S'Tota pulchra es Maria (Marian offertory)'
p2417
S'Ave Maria'
p2418
tp2419
a(S'The complete piano version of -Pictures at an exhibition-'
p2420
S'Pictures at an Exhibition '
p2421
tp2422
a(S'O vos omnes (Motet)'
p2423
S'O vos omnes'
p2424
tp2425
a(S'Hab oft im Kreise der Lieben (Revised Arrangement)'
p2426
S'Treue Liebe'
p2427
tp2428
a(S'Serenade Italienne'
p2429
S'Serenade'
p2430
tp2431
a(S'Conditor Alme Siderum (Creator Alme Siderum) '
p2432
S'Conditor Alme Siderum '
p2433
tp2434
a(g2432
S'Conditor alme siderum (3e verset)'
p2435
tp2436
a(S'Urbs Jerusalem '
p2437
S'Urbs Jerusalem'
p2438
tp2439
a(S'Ave Maris Stella (4e verset)'
p2440
S'Ave Maris Stella'
p2441
tp2442
a(g2440
S'Ave maris stella '
p2443
tp2444
a(S'Ave Maris Stella (2e verset)'
p2445
g2441
tp2446
a(g2445
g2443
tp2447
a(S'Ave Maris Stella (3e verset)'
p2448
g2441
tp2449
a(g2448
g2443
tp2450
a(S'Ave Maris Stella (1er verset)'
p2451
g2443
tp2452
a(S'premier_livre_de_clavecin_suite_4_5'
p2453
S'suite_5_4'
p2454
tp2455
a(S'magnificat_1_1'
p2456
S'magnificat_1_2'
p2457
tp2458
a(g2456
S'magnificat_1_3'
p2459
tp2460
a(g2456
S'magnificat_1_4'
p2461
tp2462
a(g2456
S'magnificat_1_5'
p2463
tp2464
a(g2456
S'magnificat_1_6'
p2465
tp2466
a(S'premier_livre_de_clavecin_suite_4_2'
p2467
S'premier_livre_de_clavecin_suite_2_4'
p2468
tp2469
a(g2467
S'suite_2_4'
p2470
tp2471
a(S'troisieme_livre_de_clavecin_suite_4_3'
p2472
S'suite_3_4'
p2473
tp2474
a(g2472
S'suite_4_3'
p2475
tp2476
a(S'premier_livre_de_clavecin_suite_4_4'
p2477
S'premier_livre_de_clavecin_suite_4_7'
p2478
tp2479
a(g2477
g2468
tp2480
a(g2477
S'premier_livre_de_clavecin_suite_4_1'
p2481
tp2482
a(g2477
S'suite_1_4'
p2483
tp2484
a(g2477
g2473
tp2485
a(g2477
g2454
tp2486
a(g2477
S'premier_livre_de_clavecin_suite_3_4'
p2487
tp2488
a(g2477
S'premier_livre_de_clavecin_suite_4_6'
p2489
tp2490
a(g2477
g2470
tp2491
a(g2477
g2475
tp2492
a(S'premier_livre_de_clavecin_suite_5_1'
p2493
S'suite_1_5'
p2494
tp2495
a(S'premier_livre_de_clavecin_suite_2_5'
p2496
S'suite_5_2'
p2497
tp2498
a(g2468
g2470
tp2499
a(S'premier_livre_de_clavecin_suite_2_3'
p2500
S'suite_3_2'
p2501
tp2502
a(g2500
S'suite_2_3'
p2503
tp2504
a(S'premier_livre_de_clavecin_suite_2_2'
p2505
S'premier_livre_de_clavecin_suite_2_1'
p2506
tp2507
a(g2505
S'suite_1_2'
p2508
tp2509
a(g2505
g2501
tp2510
a(g2505
g2497
tp2511
a(g2505
g2503
tp2512
a(g2505
S'suite_2_2'
p2513
tp2514
a(g2505
S'suite_2_1'
p2515
tp2516
a(g2505
g2470
tp2517
a(g2506
g2508
tp2518
a(g2506
g2515
tp2519
a(S'troisieme_livre_de_clavecin_suite_1_3'
p2520
S'suite_1_3'
p2521
tp2522
a(g2520
S'suite_3_1'
p2523
tp2524
a(g2520
S'troisieme_livre_de_clavecin_suite_3_1'
p2525
tp2526
a(g2481
g2483
tp2527
a(S'magnificat_5_5'
p2528
S'magnificat_5_6'
p2529
tp2530
a(g2528
S'magnificat_5_1'
p2531
tp2532
a(g2528
S'magnificat_5_2'
p2533
tp2534
a(g2528
S'magnificat_5_3'
p2535
tp2536
a(S'troisieme_livre_de_clavecin_suite_8_1'
p2537
S'troisieme_livre_de_clavecin_suite_1_8'
p2538
tp2539
a(S'magnificat_3_3'
p2540
S'magnificat_3_1'
p2541
tp2542
a(S'troisieme_livre_de_clavecin_suite_2_5'
p2543
g2497
tp2544
a(g2543
S'troisieme_livre_de_clavecin_suite_5_2'
p2545
tp2546
a(S'suite_1_1'
p2547
g2508
tp2548
a(g2547
g2521
tp2549
a(S'troisieme_livre_de_clavecin_suite_2_2'
p2550
g2501
tp2551
a(g2550
S'troisieme_livre_de_clavecin_suite_2_3'
p2552
tp2553
a(g2550
g2497
tp2554
a(g2550
g2545
tp2555
a(g2550
S'troisieme_livre_de_clavecin_suite_3_2'
p2556
tp2557
a(g2550
g2503
tp2558
a(g2550
g2513
tp2559
a(g2550
g2515
tp2560
a(g2550
g2470
tp2561
a(S'second_livre_de_clavecin_suite_3_6'
p2562
S'second_livre_de_clavecin_suite_6_3'
p2563
tp2564
a(S'second_livre_de_clavecin_suite_6_4'
p2565
S'second_livre_de_clavecin_suite_4_6'
p2566
tp2567
a(S'second_livre_de_clavecin_suite_4_4'
p2568
g2566
tp2569
a(g2568
S'second_livre_de_clavecin_suite_3_4'
p2570
tp2571
a(g2568
g2454
tp2572
a(g2568
S'second_livre_de_clavecin_suite_4_1'
p2573
tp2574
a(g2568
S'second_livre_de_clavecin_suite_4_2'
p2575
tp2576
a(g2552
g2556
tp2577
a(g2552
g2503
tp2578
a(g2487
g2475
tp2579
a(S'troisieme_livre_de_clavecin_suite_6_1'
p2580
S'troisieme_livre_de_clavecin_suite_1_6'
p2581
tp2582
a(S'second_livre_de_clavecin_suite_2_2'
p2583
S'second_livre_de_clavecin_suite_2_3'
p2584
tp2585
a(g2583
S'second_livre_de_clavecin_suite_2_1'
p2586
tp2587
a(S'premier_livre_de_clavecin_suite_3_3'
p2588
S'premier_livre_de_clavecin_suite_3_1'
p2589
tp2590
a(g2588
S'suite_5_3'
p2591
tp2592
a(g2588
S'premier_livre_de_clavecin_suite_1_3'
p2593
tp2594
a(g2588
g2503
tp2595
a(g2588
g2475
tp2596
a(S'troisieme_livre_de_clavecin_suite_5_3'
p2597
g2591
tp2598
a(g2589
g2593
tp2599
a(S'troisieme_livre_de_clavecin_suite_3_3'
p2600
g2556
tp2601
a(g2600
g2503
tp2602
a(g2600
g2475
tp2603
a(g2556
g2503
tp2604
a(S'troisieme_livre_de_clavecin_suite_1_1'
p2605
S'troisieme_livre_de_clavecin_suite_1_4'
p2606
tp2607
a(g2605
g2515
tp2608
a(g2513
g2515
tp2609
a(g2513
g2470
tp2610
a(S'second_livre_de_clavecin_suite_5_5'
p2611
S'second_livre_de_clavecin_suite_5_4'
p2612
tp2613
a(g2611
S'second_livre_de_clavecin_suite_5_1'
p2614
tp2615
a(g2611
S'second_livre_de_clavecin_suite_5_3'
p2616
tp2617
a(S'second_livre_de_clavecin_suite_1_1'
p2618
S'second_livre_de_clavecin_suite_1_3'
p2619
tp2620
a(g2618
S'second_livre_de_clavecin_suite_1_2'
p2621
tp2622
a(g2618
S'second_livre_de_clavecin_suite_1_5'
p2623
tp2624
a(g2618
S'second_livre_de_clavecin_suite_1_4'
p2625
tp2626
a(S'troisieme_livre_de_clavecin_suite_7_2'
p2627
S'troisieme_livre_de_clavecin_suite_2_7'
p2628
tp2629
a(S'troisieme_livre_de_clavecin_suite_6_2'
p2630
S'suite_6_2'
p2631
tp2632
a(g2630
S'troisieme_livre_de_clavecin_suite_2_6'
p2633
tp2634
a(S'troisieme_livre_de_clavecin_suite_4_2'
p2635
S'troisieme_livre_de_clavecin_suite_2_4'
p2636
tp2637
a(S'premier_livre_d-orgue_suite_3_1'
p2638
S'premier_livre_d-orgue_suite_1_3'
p2639
tp2640
a(S'premier_livre_d-orgue_suite_3_3'
p2641
g2639
tp2642
a(S'premier_livre_d-orgue_suite_1_1'
p2643
S'premier_livre_d-orgue_suite_1_6'
p2644
tp2645
a(S'magnificat_6_6'
p2646
S'magnificat_6_5'
p2647
tp2648
a(g2646
S'magnificat_6_4'
p2649
tp2650
a(S'troisieme_livre_de_clavecin_suite_2_1'
p2651
S'troisieme_livre_de_clavecin_suite_1_2'
p2652
tp2653
a(S'magnificat_4_4'
p2654
S'magnificat_4_6'
p2655
tp2656
a(g2654
S'magnificat_4_1'
p2657
tp2658
a(S'premier_livre_de_clavecin_suite_5_5'
p2659
S'premier_livre_de_clavecin_suite_5_6'
p2660
tp2661
a(g2659
S'premier_livre_de_clavecin_suite_5_2'
p2662
tp2663
a(g2659
S'premier_livre_de_clavecin_suite_5_3'
p2664
tp2665
a(g2659
S'premier_livre_de_clavecin_suite_3_5'
p2666
tp2667
a(g2664
g2666
tp2668
a(S'premier_livre_de_clavecin_suite_1_1'
p2669
S'premier_livre_de_clavecin_suite_1_2'
p2670
tp2671
a(S'Jesus meine Zuversicht'
p2672
S'Jesus meine Zuversicht '
p2673
tp2674
a(S'2nd Movement from Trio Sonata in C Minor (for S A T)'
p2675
S'2nd Movement from Trio Sonata in C Minor (for S A T B)'
p2676
tp2677
a(S'4th Movement from Trio Sonata in C Minor (for S A T)'
p2678
S'4th Movement from Trio Sonata in C Minor (for S A T B)'
p2679
tp2680
a(S'3rd Movement from Trio Sonata in C Minor (for S A A T)'
p2681
S'3rd Movement from Trio Sonata in C Minor (for S A T B)'
p2682
tp2683
a(S'piano_sonata_50_3_3'
p2684
S'piano_sonata_50_3_1'
p2685
tp2686
a(g2684
S'piano_sonata_50_3_4'
p2687
tp2688
a(S'organiste_moderne_1_1'
p2689
S'organiste_moderne_5_1'
p2690
tp2691
a(S'organiste_moderne_2_2'
p2692
S'organiste_moderne_5_2'
p2693
tp2694
a(S'organiste_moderne_2_3'
p2695
S'organiste_moderne_3_2'
p2696
tp2697
a(S'organiste_moderne_3_3'
p2698
g2696
tp2699
a(g2698
S'organiste_moderne_3_1'
p2700
tp2701
a(S'sonata_for_cembalo_1_3_3'
p2702
S'sonata_for_cembalo_1_3_2'
p2703
tp2704
a(g2702
S'sonata_for_cembalo_1_3_1'
p2705
tp2706
a(S'concerto_for_trumpet_2_1'
p2707
S'concerto_for_trumpet_1_2'
p2708
tp2709
a(S'concerto_for_trumpet_2_2'
p2710
g2708
tp2711
a(S'Jeanie With The Light Brown Hair - for SATB'
p2712
S'Jeanie With the Light Brown Hair'
p2713
tp2714
a(g2712
S'Jeanie With The Light Brown Hair - for SAT'
p2715
tp2716
a(S'Choral Arrangement  "Jerusalem, du hochgebaute Stadt" V in C'
p2717
S'Jerusalem, du hochgebaute Stadt'
p2718
tp2719
a(S'Herr Gott, dich loben alle wir (Lord God, We All Praise You, Chorale)'
p2720
S'Herr, Gott, dich loben alle wir (Oh Lord, we praise you)'
p2721
tp2722
a(S'recueil_de_noels_suite_1_5'
p2723
S'Recueil de Noe\xcc\x88ls '
p2724
tp2725
a(S'recueil_de_noels_suite_1_4'
p2726
g2724
tp2727
a(S'recueil_de_noels_suite_1_7'
p2728
g2724
tp2729
a(S'recueil_de_noels_suite_1_6'
p2730
g2724
tp2731
a(S'recueil_de_noels_suite_1_1'
p2732
S'recueil_de_noels_suite_1_3'
p2733
tp2734
a(g2732
S'recueil_de_noels_suite_1_2'
p2735
tp2736
a(g2732
S'recueil_de_noels_suite_2_1'
p2737
tp2738
a(g2732
g2724
tp2739
a(g2733
g2724
tp2740
a(g2735
g2737
tp2741
a(g2735
g2724
tp2742
a(S'recueil_de_noels_suite_2_2'
p2743
S'recueil_de_noels_suite_2_3'
p2744
tp2745
a(g2743
g2737
tp2746
a(g2743
S'recueil_de_noels_suite_2_6'
p2747
tp2748
a(g2743
S'recueil_de_noels_suite_2_4'
p2749
tp2750
a(g2743
S'recueil_de_noels_suite_2_5'
p2751
tp2752
a(g2743
g2724
tp2753
a(g2744
g2724
tp2754
a(g2737
g2724
tp2755
a(g2747
g2724
tp2756
a(g2749
g2724
tp2757
a(g2751
g2724
tp2758
a(S'pieces_de_clavecin_1'
p2759
S'Pie\xcc\x80ces de clavecin '
p2760
tp2761
a(S'pieces_de_clavecin_2'
p2762
g2760
tp2763
a(S'Bicinium '
p2764
S'bicinium'
p2765
tp2766
a(S'Carmen in Sol '
p2767
S'carmen_in_sol'
p2768
tp2769
a(S'concerto in D Major for baroque violoncello, baroque string orchestra and contin'
p2770
S'Concerto in D Major for violoncello and orchestra'
p2771
tp2772
a(S'Cantata: The Wreck of the Hesperus (pno red)'
p2773
S'Cantata: The Wreck of the Hesperus '
p2774
tp2775
a(S'There Were Three Ravens'
p2776
S'There were three ravens '
p2777
tp2778
a(S'Die Kirche steht gegrundet - 3rd Choral Movement'
p2779
S'Die Kirche steht gegrundet'
p2780
tp2781
a(S'Themes and 15 Variations for Pianoforte and Violin'
p2782
S'Theme'
p2783
tp2784
a(S'Etwas Kleines  Polka (A Somewhat Small Polka)'
p2785
S'"Lucifer" Polka'
p2786
tp2787
a(g2785
S'"Secunden" Polka'
p2788
tp2789
a(S'An der schA\xcc\x83\xc2\xb6nen blauen Donau (On the Beautiful Blue Danube, German text)'
p2790
S'An der schA\xcc\x83\xc2\xb6nen blauen Donau (On the Beautiful Blue Danube)'
p2791
tp2792
a(S'Elektro - magnetische Polka (Electric -magnetic polka)'
p2793
S'"Reunion" Polka'
p2794
tp2795
a(g2793
S'Albion - Polka'
p2796
tp2797
a(g2793
S'Explosions - Polka'
p2798
tp2799
a(g2793
S'"Newa" Polka'
p2800
tp2801
a(g2793
S'Gay Polka'
p2802
tp2803
a(g2793
S'French Polka'
p2804
tp2805
a(g2793
S'"Neuhauser" Polka'
p2806
tp2807
a(g2793
S'"Husaren" Polka'
p2808
tp2809
a(S'la_valse'
p2810
S'La Valse'
p2811
tp2812
a(S'Tocccata for Piano'
p2813
S'Toccata'
p2814
tp2815
a(S'toccata_11'
p2816
g2814
tp2817
a(S'sonata_2_14_2'
p2818
S'sonata_2_14_4'
p2819
tp2820
a(S'Ad Dominum cum tribularer clamavi (soprano trombone part)'
p2821
S'Ad Dominum, cum tribularer '
p2822
tp2823
a(g2821
S'Ad dominum cum tribularer clamavi'
p2824
tp2825
a(S'Ad Dominum cum tribularer clamavi (bass trombone part)'
p2826
g2822
tp2827
a(S'Ad Dominum cum tribularer clamavi (baritone trombone part)'
p2828
g2824
tp2829
a(S'Ad Dominum cum tribularer clamavi (tenor trombone part)'
p2830
g2824
tp2831
a(S'Domine Deus (Gradual No. 7)'
p2832
S'Domine Deus (Gradual 7)'
p2833
tp2834
a(S'Canzoni per sonare con ogni sorte di stromenti (Raverii, Alessandro)'
p2835
S'Canzoni'
p2836
tp2837
a(S'Canzon a 4, Ch.194 '
p2838
g2836
tp2839
a(S'Canzon terza'
p2840
g2836
tp2841
a(S'Sixieme Prelude (from "LArt de Toucher le Clavecin")'
p2842
S'Prelude'
p2843
tp2844
a(S'Huitieme Prelude (from "LArt de Toucher le Clavecin")'
p2845
g2843
tp2846
a(S'Allemande Fuguee (from "Second Concert Royal")'
p2847
S'Allemande'
p2848
tp2849
a(S'Contrappunto bestiale alla mente (Falala ...)'
p2850
S'Contrapunto bestiale alla mente'
p2851
tp2852
a(S'SUONATA SESTA, FVGA TRIPLICATA From Primo Registro of the Organo Suonarino'
p2853
S'Suonata Sesta'
p2854
tp2855
a(S'SUONATA QUARTA, FVGA CROMATICA From Primo Registro of the Organo Suonarino'
p2856
S'Suonata quarta'
p2857
tp2858
a(S'Machet die Tore weit (arr.)'
p2859
S'Machet die Tore weit'
p2860
tp2861
a(S'Ihr lieben Hirten, furchtet euch nicht (Kleine Weihnachtskantate)'
p2862
S'ihr_lieben_hirten'
p2863
tp2864
a(g2862
S'Ihr lieben Hirten '
p2865
tp2866
a(S'24 Caprices for Solo Violin: 24'
p2867
S'24 Caprices for Solo Violin: 23'
p2868
tp2869
a(g2867
S'24 Caprices for Solo Violin: 01'
p2870
tp2871
a(g2867
S'24 Caprices for Solo Violin: 02'
p2872
tp2873
a(g2867
S'24 Caprices for Solo Violin: 03'
p2874
tp2875
a(S'Lament'
p2876
S'lamento'
p2877
tp2878
a(S'Es kam ein Engel hell und klar ("Vom Himmel hoch, da komm ich her")'
p2879
S'Vom Himmel hoch, da komm ich her'
p2880
tp2881
a(S'Choral Arrangement "Wir glauben all an einen Gott" in D'
p2882
S'Choral Arrangement "Wir glauben all an einen Gott"'
p2883
tp2884
a(S'Herr Gott, dich loben alle wir, LV 31 '
p2885
S'Herr Gott, dich loben alle wir'
p2886
tp2887
a(S'Die Auferstehung ("Auferstehn, auferstehn")'
p2888
S'Die Auferstehung '
p2889
tp2890
a(S'Peer Gynt:  "In the Hall of the Mountain King" (Arr.)'
p2891
S'On the Mountains'
p2892
tp2893
a(S'Norwegian Peasant Dances, Op.72 '
p2894
S'Norwegian'
p2895
tp2896
a(S"Anitra's Dance (Arr. for Strings and Triangle)"
p2897
S"Anitra's Dance"
p2898
tp2899
a(S'Sonata in F Major Op. 1 Nr. 1'
p2900
S'Sonata in F Major Op. 2 Nr. 1'
p2901
tp2902
a(S'Sonata for Violoncello and Harpsichord No. 1 in F Major'
p2903
S'Sonata F Major'
p2904
tp2905
a(S'Sonata in E Minor for Flute, 2 Violins and Basso Continuo'
p2906
S'Sonata E Minor'
p2907
tp2908
a(S'Musikant - Wandern lieb ich fA\xcc\x83\xc2\xbcr mein Leben (The Minstrel)'
p2909
S'Lebe wohl'
p2910
tp2911
a(g2909
S'Verschwiegene Liebe'
p2912
tp2913
a(g2909
S'Nimmersatte Liebe'
p2914
tp2915
a(S'Der Freund (Wer auf den Wogen a\xcc\x82\xc2\x80\xc2\xa6)'
p2916
S'Der Freund'
p2917
tp2918
a(S'Im Sommer ("Wie Feld und Au so blinkend im Tau")'
p2919
S'Wiegenlied im Sommer'
p2920
tp2921
a(S'La juta fora pe la nnammurata '
p2922
S'La gelosa '
p2923
tp2924
a(S'Quintetto 2. Andante'
p2925
S'Andante'
p2926
tp2927
a(S'Piano Concerto No. 2 in E Major, 1st mvt Allegro con spirito'
p2928
S'Piano Concerto, 1st mvt'
p2929
tp2930
a(S'Sonata No 2 in F Major 4th Movement'
p2931
S'Sonata'
p2932
tp2933
a(S'Sonata 2 in F Major 2nd Movement'
p2934
g2932
tp2935
a(S'Trio Sonata in A minor, 2nd mvt'
p2936
g2932
tp2937
a(S'2nd Movement (Courante) from Sonate 1 in C (for S A T)'
p2938
S'Courante (2nd Movement) from Sonate 1 in C (for S A T B)'
p2939
tp2940
a(S'2nd Movement from Sonata 2 in C Minor (for S A T B)'
p2941
S'2nd Movement from Sonata 2 in C Minor (for S A T)'
p2942
tp2943
a(S'todos_los_bienes_del_mundo'
p2944
S'todos_los_bienes'
p2945
tp2946
a(S'Brandenburg Concerto No.6 in B-flat major, BWV 1051 (Bach, Johann Sebastian)'
p2947
S'Jauchzet Gott in allen Landen, BWV 51 (Bach, Johann Sebastian)'
p2948
tp2949
a(S'Gottes Zeit ist die allerbeste Zeit, BWV 106 (Bach, Johann Sebastian)'
p2950
S'Harpsichord Concerto No.5 in F minor, BWV 1056 (Bach, Johann Sebastian)'
p2951
tp2952
a(g2950
S'Brandenburg Concerto No.1 in F major, BWV 1046 (Bach, Johann Sebastian)'
p2953
tp2954
a(S'Wir danken dir, Gott, wir danken dir, BWV 29 (Bach, Johann Sebastian)'
p2955
S'Oster-Oratorium, BWV 249 (Bach, Johann Sebastian)'
p2956
tp2957
a(S'Ballet Nr.14, Sarabanda Nr.15, Paduana Nr.16'
p2958
S'Courant Nr. 50'
p2959
tp2960
a(S'studenten-music_30-34'
p2961
S'Studenten-Music '
p2962
tp2963
a(S'studenten-music_45-49'
p2964
g2962
tp2965
a(S'Gottes Zeit ist die allerbeste Zeit, BWV 106 (Bach, Johann Sebastian)'
p2966
S'Orchestral Suite No.1 in C major, BWV 1066 (Bach, Johann Sebastian)'
p2967
tp2968
a(S'Fair Phyllis I saw sitting'
p2969
S'Fair Phyllis '
p2970
tp2971
a(S'24 Horn Trios, Op.82 '
p2972
S'horn_trios_82_24'
p2973
tp2974
a(S'PraludiumNr 4 G-Dur aus 6 leichte Praeludien (Prelude No. 4 , G-Major from 6 sim'
p2975
S'4 Osterpraeludien '
p2976
tp2977
a(S'Sonate a la Maresienne '
p2978
S'La Provencale'
p2979
tp2980
a(S'La Musette (for A T)'
p2981
S'La Musette (for S T)'
p2982
tp2983
a(S'Die guldne Sonne voll Freud und Wonne (in Ab)'
p2984
S'Die guldne Sonne voll Freud und Wonne'
p2985
tp2986
a(S'Warum sollt ich mich denn gramen? (Choral 2)'
p2987
S'Warum sollt ich mich denn gramen?'
p2988
tp2989
a(S'Sonata for harpsichord in F Minor'
p2990
S'Harpsichord Sonata in F Minor'
p2991
tp2992
a(S'sonatas_for_traversiere_2_3'
p2993
S'sonatas_for_traversiere_3_2'
p2994
tp2995
a(S'sonatas_for_traversiere_2_2'
p2996
S'sonatas_for_traversiere_2_1'
p2997
tp2998
a(g2996
g2994
tp2999
a(S'sonatas_for_traversiere_3_3'
p3000
S'sonatas_for_traversiere_3_1'
p3001
tp3002
a(S'solos_for_flute_and_cello_1_1'
p3003
S'solos_for_flute_and_cello_8_1'
p3004
tp3005
a(g3003
S'solos_for_flute_and_cello_10_1'
p3006
tp3007
a(g3003
S'solos_for_flute_and_cello_9_1'
p3008
tp3009
a(g3003
S'solos_for_flute_and_cello_11_1'
p3010
tp3011
a(g3003
S'solos_for_flute_and_cello_5_1'
p3012
tp3013
a(S'sonatas_for_traversiere_1_1'
p3014
S'sonatas_for_traversiere_1_2'
p3015
tp3016
a(g3014
S'sonatas_for_traversiere_1_3'
p3017
tp3018
a(S'solos_for_flute_and_cello_2_2'
p3019
S'solos_for_flute_and_cello_2_3'
p3020
tp3021
a(g3019
S'solos_for_flute_and_cello_3_2'
p3022
tp3023
a(g3019
S'solos_for_flute_and_cello_4_2'
p3024
tp3025
a(g3020
g3022
tp3026
a(S'solos_for_flute_and_cello_3_3'
p3027
g3022
tp3028
a(g3027
S'solos_for_flute_and_cello_4_3'
p3029
tp3030
a(S'PrA\xcc\x83\xc2\xa9lude No.  3 from "6 PrA\xcc\x83\xc2\xa9ludes"'
p3031
S'PrA\xcc\x83\xc2\xa9ludes (2)'
p3032
tp3033
a(S'A\xcc\x83\xc2\x89tude No. 8 from "12 A\xcc\x83\xc2\x89tudes for piano solo"'
p3034
S'A\xcc\x83\xc2\x89tude No. 7'
p3035
tp3036
a(g3034
S'A\xcc\x83\xc2\x89tude No. 6'
p3037
tp3038
a(g3034
S'A\xcc\x83\xc2\x89tude No. 5'
p3039
tp3040
a(g3034
S'A\xcc\x83\xc2\x89tude No. 4'
p3041
tp3042
a(g3034
S'A\xcc\x83\xc2\x89tude No. 3'
p3043
tp3044
a(g3034
S'A\xcc\x83\xc2\x89tude No. 2'
p3045
tp3046
a(g3034
S'A\xcc\x83\xc2\x89tude No. 1'
p3047
tp3048
a(g3034
S'A\xcc\x83\xc2\x89tude No. 9'
p3049
tp3050
a(g3034
S'A\xcc\x83\xc2\x89tude No.10'
p3051
tp3052
a(g3034
S'A\xcc\x83\xc2\x89tude No.11'
p3053
tp3054
a(g3034
S'A\xcc\x83\xc2\x89tude No. 8'
p3055
tp3056
a(S'PrA\xcc\x83\xc2\xa9lude in C# Minor (from "24 PrA\xcc\x83\xc2\xa9ludes")'
p3057
S'PrA\xcc\x83\xc2\xa9ludes (4)'
p3058
tp3059
a(S'akvareller_19_1'
p3060
S'akvareller_19'
p3061
tp3062
a(S'akvareller_19_2'
p3063
g3061
tp3064
a(g3061
S'akvareller_19_4'
p3065
tp3066
a(g3061
S'akvareller_19_5'
p3067
tp3068
a(g3061
S'akvareller_19_6'
p3069
tp3070
a(g3061
S'akvareller_19_7'
p3071
tp3072
a(g3061
S'akvareller_19_8'
p3073
tp3074
a(g3061
S'akvareller_19_9'
p3075
tp3076
a(S'Choral Adage for the Penultimate Sunday of the Liturgical Year  (See, Now is the'
p3077
S'Choral Adage for the Antepenultimate Sunday of the Liturgical Year  (See, Now is'
p3078
tp3079
a(S'O bone Jesu (Gracious Jesus)'
p3080
S'O bone Jesu '
p3081
tp3082
a(S'Courtely Masquing Ayres ( 9)'
p3083
S'courtly_masquing_ayres_9'
p3084
tp3085
a(S'Courtly Masking Ayres No 2 (for SATB)'
p3086
S'Courtly Masking Ayres No 2 (for SAT)'
p3087
tp3088
a(S'Courtly Masking Ayres No 9 (for S A T)'
p3089
S'Courtly Masking Ayres No 9 (for S A T B)'
p3090
tp3091
a(S'Courtely Masquing Ayres ( 6)'
p3092
S'Courtly Masquing Ayres '
p3093
tp3094
a(S'Courtely Masquing Ayres (16)'
p3095
S'courtly_masquing_ayres_16'
p3096
tp3097
a(g3095
g3093
tp3098
a(S'Courtely Masquing Ayres (10)'
p3099
S'courtly_masquing_ayres_10'
p3100
tp3101
a(g3099
g3093
tp3102
a(S'Courtely Masquing Ayres ( 2)'
p3103
g3093
tp3104
a(S'Courtely Masquing Ayres (20)'
p3105
g3093
tp3106
a(S'Courtely Masquing Ayres ( 8)'
p3107
g3093
tp3108
a(S'Courtely Masquing Ayres ( 14)'
p3109
g3093
tp3110
a(S'courtly_masquing_ayres_13'
p3111
g3093
tp3112
a(S'Allegro C-major'
p3113
S'Allegro'
p3114
tp3115
a(S'Habanera (with choir) from Carmen'
p3116
S'Habanera from Carmen'
p3117
tp3118
a(S'carmen_act-1_03_chor_der_strassenjungen'
p3119
S'Carmen '
p3120
tp3121
a(S'Carmen - Prelude'
p3122
S'Carmen Prelude'
p3123
tp3124
a(S'Leben als Gotteslob,  1st and 2nd Versions (Dein Leben sei ein Lied)'
p3125
S'Leben als Gotteslob'
p3126
tp3127
a(S'Te Deum, H.146 '
p3128
S'Te Deum'
p3129
tp3130
a(S'David et Jonathas, H.490 '
p3131
S'David Et Jonathas'
p3132
tp3133
a(S'Life and Dreams VIII'
p3134
S'Life and Dreams VII'
p3135
tp3136
a.